TN:
SF:/home/ilyasov_ilya/ferdosiakrymskaa-svg/workspace/projects/lab05/lab05/banking/Account.cpp
FN:10,10,_ZNK7Account10GetBalanceEv
FN:12,15,_ZN7Account13ChangeBalanceEi
FN:17,20,_ZN7Account4LockEv
FN:22,22,_ZN7Account6UnlockEv
FN:5,6,_ZN7AccountC2Eii
FN:8,8,_ZN7AccountD0Ev
FN:8,8,_ZN7AccountD2Ev
FNDA:8,_ZNK7Account10GetBalanceEv
FNDA:4,_ZN7Account13ChangeBalanceEi
FNDA:6,_ZN7Account4LockEv
FNDA:3,_ZN7Account6UnlockEv
FNDA:26,_ZN7AccountC2Eii
FNDA:8,_ZN7AccountD0Ev
FNDA:26,_ZN7AccountD2Ev
FNF:7
FNH:7
DA:5,26
DA:6,26
DA:8,34
DA:10,8
DA:12,4
DA:13,4
DA:14,3
DA:15,3
DA:17,6
DA:18,6
DA:19,5
DA:20,5
DA:22,3
LF:13
LH:13
end_of_record
TN:
SF:/home/ilyasov_ilya/ferdosiakrymskaa-svg/workspace/projects/lab05/lab05/banking/Account.h
FN:18,18,_ZNK7Account2idEv
FNDA:0,_ZNK7Account2idEv
FNF:1
FNH:0
DA:18,0
LF:1
LH:0
end_of_record
TN:
SF:/home/ilyasov_ilya/ferdosiakrymskaa-svg/workspace/projects/lab05/lab05/banking/Transaction.cpp
FN:12,12,_ZN12_GLOBAL__N_15GuardC2ER7Account
FN:14,14,_ZN12_GLOBAL__N_15GuardD2Ev
FN:21,21,_ZN11TransactionC2Ev
FN:23,23,_ZN11TransactionD0Ev
FN:23,23,_ZN11TransactionD2Ev
FN:25,44,_ZN11Transaction4MakeER7AccountS1_i
FN:46,49,_ZN11Transaction6CreditER7Accounti
FN:51,58,_ZN11Transaction5DebitER7Accounti
FN:60,65,_ZN11Transaction14SaveToDataBaseER7AccountS1_i
FNDA:6,_ZN12_GLOBAL__N_15GuardC2ER7Account
FNDA:6,_ZN12_GLOBAL__N_15GuardD2Ev
FNDA:9,_ZN11TransactionC2Ev
FNDA:0,_ZN11TransactionD0Ev
FNDA:9,_ZN11TransactionD2Ev
FNDA:7,_ZN11Transaction4MakeER7AccountS1_i
FNDA:3,_ZN11Transaction6CreditER7Accounti
FNDA:3,_ZN11Transaction5DebitER7Accounti
FNDA:1,_ZN11Transaction14SaveToDataBaseER7AccountS1_i
FNF:9
FNH:8
DA:12,6
DA:14,6
DA:21,9
DA:23,9
DA:25,7
DA:26,7
DA:28,6
DA:30,5
DA:32,4
DA:34,3
DA:35,3
DA:37,3
DA:39,3
DA:40,3
DA:42,3
DA:43,3
DA:44,3
DA:46,3
DA:48,3
DA:49,3
DA:51,3
DA:53,3
DA:54,2
DA:55,2
DA:57,1
DA:60,1
DA:61,1
DA:62,1
DA:63,1
DA:64,1
DA:65,1
LF:31
LH:31
end_of_record
