TN:
SF:/home/ilyasov_ilya/ferdosiakrymskaa-svg/workspace/projects/lab05/lab05/banking/Account.cpp
FN:10,10,_ZNK7Account10GetBalanceEv
FN:12,15,_ZN7Account13ChangeBalanceEi
FN:17,20,_ZN7Account4LockEv
FN:22,22,_ZN7Account6UnlockEv
FN:5,6,_ZN7AccountC2Eii
FN:8,8,_ZN7AccountD0Ev
FN:8,8,_ZN7AccountD2Ev
FNDA:8,_ZNK7Account10GetBalanceEv
FNDA:4,_ZN7Account13ChangeBalanceEi
FNDA:6,_ZN7Account4LockEv
FNDA:3,_ZN7Account6UnlockEv
FNDA:26,_ZN7AccountC2Eii
FNDA:8,_ZN7AccountD0Ev
FNDA:26,_ZN7AccountD2Ev
FNF:7
FNH:7
DA:5,26
DA:6,26
DA:8,34
DA:10,8
DA:12,4
DA:13,4
DA:14,3
DA:15,3
DA:17,6
DA:18,6
DA:19,5
DA:20,5
DA:22,3
LF:13
LH:13
end_of_record
TN:
SF:/home/ilyasov_ilya/ferdosiakrymskaa-svg/workspace/projects/lab05/lab05/banking/Account.h
FN:18,18,_ZNK7Account2idEv
FNDA:19,_ZNK7Account2idEv
FNF:1
FNH:1
DA:18,19
LF:1
LH:1
end_of_record
TN:
SF:/home/ilyasov_ilya/ferdosiakrymskaa-svg/workspace/projects/lab05/lab05/banking/Transaction.cpp
FN:12,12,_ZN12_GLOBAL__N_15GuardC2ER7Account
FN:14,14,_ZN12_GLOBAL__N_15GuardD2Ev
FN:21,21,_ZN11TransactionC2Ev
FN:23,23,_ZN11TransactionD0Ev
FN:23,23,_ZN11TransactionD2Ev
FN:25,44,_ZN11Transaction4MakeER7AccountS1_i
FN:46,49,_ZN11Transaction6CreditER7Accounti
FN:51,58,_ZN11Transaction5DebitER7Accounti
FN:60,65,_ZN11Transaction14SaveToDataBaseER7AccountS1_i
FNDA:6,_ZN12_GLOBAL__N_15GuardC2ER7Account
FNDA:6,_ZN12_GLOBAL__N_15GuardD2Ev
FNDA:9,_ZN11TransactionC2Ev
FNDA:0,_ZN11TransactionD0Ev
FNDA:9,_ZN11TransactionD2Ev
FNDA:7,_ZN11Transaction4MakeER7AccountS1_i
FNDA:3,_ZN11Transaction6CreditER7Accounti
FNDA:3,_ZN11Transaction5DebitER7Accounti
FNDA:1,_ZN11Transaction14SaveToDataBaseER7AccountS1_i
FNF:9
FNH:8
DA:12,6
DA:14,6
DA:21,9
DA:23,9
DA:25,7
DA:26,7
DA:28,6
DA:30,5
DA:32,4
DA:34,3
DA:35,3
DA:37,3
DA:39,3
DA:40,3
DA:42,3
DA:43,3
DA:44,3
DA:46,3
DA:48,3
DA:49,3
DA:51,3
DA:53,3
DA:54,2
DA:55,2
DA:57,1
DA:60,1
DA:61,1
DA:62,1
DA:63,1
DA:64,1
DA:65,1
LF:31
LH:31
end_of_record
TN:
SF:/home/ilyasov_ilya/ferdosiakrymskaa-svg/workspace/projects/lab05/lab05/banking/Transaction.h
FN:11,11,_ZNK11Transaction3feeEv
FN:12,12,_ZN11Transaction7set_feeEi
FNDA:2,_ZNK11Transaction3feeEv
FNDA:5,_ZN11Transaction7set_feeEi
FNF:2
FNH:2
DA:11,2
DA:12,5
LF:2
LH:2
end_of_record
TN:
SF:/home/ilyasov_ilya/ferdosiakrymskaa-svg/workspace/projects/lab05/lab05/tests/mock_classes.h
FN:10,10,_ZN11MockAccount13ChangeBalanceEi
FN:10,10,_ZN11MockAccount19gmock_ChangeBalanceERKN7testing7MatcherIiEE
FN:11,11,_ZN11MockAccount10gmock_LockEv
FN:11,11,_ZN11MockAccount4LockEv
FN:12,12,_ZN11MockAccount12gmock_UnlockEv
FN:12,12,_ZN11MockAccount6UnlockEv
FN:17,17,_ZN15MockTransaction14SaveToDataBaseER7AccountS1_i
FN:17,17,_ZN15MockTransaction20gmock_SaveToDataBaseERKN7testing7MatcherIR7AccountEES6_RKNS1_IiEE
FN:8,8,_ZN11MockAccountC2Eii
FN:9,9,_ZNK11MockAccount10GetBalanceEv
FN:9,9,_ZNK11MockAccount16gmock_GetBalanceEv
FNDA:4,_ZN11MockAccount13ChangeBalanceEi
FNDA:4,_ZN11MockAccount19gmock_ChangeBalanceERKN7testing7MatcherIiEE
FNDA:4,_ZN11MockAccount10gmock_LockEv
FNDA:4,_ZN11MockAccount4LockEv
FNDA:4,_ZN11MockAccount12gmock_UnlockEv
FNDA:4,_ZN11MockAccount6UnlockEv
FNDA:2,_ZN15MockTransaction14SaveToDataBaseER7AccountS1_i
FNDA:3,_ZN15MockTransaction20gmock_SaveToDataBaseERKN7testing7MatcherIR7AccountEES6_RKNS1_IiEE
FNDA:16,_ZN11MockAccountC2Eii
FNDA:2,_ZNK11MockAccount10GetBalanceEv
FNDA:2,_ZNK11MockAccount16gmock_GetBalanceEv
FNF:11
FNH:11
DA:8,16
DA:9,4
DA:10,8
DA:11,8
DA:12,8
DA:17,5
LF:6
LH:6
end_of_record
TN:
SF:/home/ilyasov_ilya/ferdosiakrymskaa-svg/workspace/projects/lab05/lab05/tests/test_account.cpp
FN:12,12,_ZN38AccountBalanceTest_InitialBalance_Test13AddToRegistryEv
FN:12,12,_ZN38AccountBalanceTest_InitialBalance_Test8TestBodyEv
FN:12,12,_ZN38AccountBalanceTest_InitialBalance_TestC2Ev
FN:16,16,_ZL56gtest_DifferentBalancesAccountBalanceTest_EvalGenerator_v
FN:16,16,_ZL59gtest_DifferentBalancesAccountBalanceTest_EvalGenerateName_RKN7testing13TestParamInfoIiEE
FN:26,26,_ZN20AccountBehaviourTest5SetUpEv
FN:27,27,_ZN20AccountBehaviourTest8TearDownEv
FN:30,30,_ZN36AccountBehaviourTest_LockUnlock_Test8TestBodyEv
FN:30,30,_ZN36AccountBehaviourTest_LockUnlock_TestC2Ev
FN:30,30,_ZN36AccountBehaviourTest_LockUnlock_TestD0Ev
FN:30,30,_ZN36AccountBehaviourTest_LockUnlock_TestD2Ev
FN:37,37,_ZN51AccountBehaviourTest_ChangeBalanceWhenUnlocked_Test8TestBodyEv
FN:37,37,_ZN51AccountBehaviourTest_ChangeBalanceWhenUnlocked_TestC2Ev
FN:37,37,_ZN51AccountBehaviourTest_ChangeBalanceWhenUnlocked_TestD0Ev
FN:37,37,_ZN51AccountBehaviourTest_ChangeBalanceWhenUnlocked_TestD2Ev
FN:41,45,_ZN49AccountBehaviourTest_ChangeBalanceWhenLocked_Test8TestBodyEv
FN:41,45,_ZN49AccountBehaviourTest_ChangeBalanceWhenLocked_TestC2Ev
FN:41,45,_ZN49AccountBehaviourTest_ChangeBalanceWhenLocked_TestD0Ev
FN:41,45,_ZN49AccountBehaviourTest_ChangeBalanceWhenLocked_TestD2Ev
FN:47,49,_ZN37AccountBehaviourTest_IdIsCorrect_Test8TestBodyEv
FN:47,49,_ZN37AccountBehaviourTest_IdIsCorrect_TestC2Ev
FN:47,49,_ZN37AccountBehaviourTest_IdIsCorrect_TestD0Ev
FN:47,49,_ZN37AccountBehaviourTest_IdIsCorrect_TestD2Ev
FN:8,8,_ZN18AccountBalanceTest5SetUpEv
FN:9,9,_ZN18AccountBalanceTest8TearDownEv
FNDA:1,_ZN38AccountBalanceTest_InitialBalance_Test13AddToRegistryEv
FNDA:4,_ZN38AccountBalanceTest_InitialBalance_Test8TestBodyEv
FNDA:4,_ZN38AccountBalanceTest_InitialBalance_TestC2Ev
FNDA:1,_ZL56gtest_DifferentBalancesAccountBalanceTest_EvalGenerator_v
FNDA:4,_ZL59gtest_DifferentBalancesAccountBalanceTest_EvalGenerateName_RKN7testing13TestParamInfoIiEE
FNDA:4,_ZN20AccountBehaviourTest5SetUpEv
FNDA:4,_ZN20AccountBehaviourTest8TearDownEv
FNDA:1,_ZN36AccountBehaviourTest_LockUnlock_Test8TestBodyEv
FNDA:1,_ZN36AccountBehaviourTest_LockUnlock_TestC2Ev
FNDA:1,_ZN36AccountBehaviourTest_LockUnlock_TestD0Ev
FNDA:1,_ZN36AccountBehaviourTest_LockUnlock_TestD2Ev
FNDA:1,_ZN51AccountBehaviourTest_ChangeBalanceWhenUnlocked_Test8TestBodyEv
FNDA:1,_ZN51AccountBehaviourTest_ChangeBalanceWhenUnlocked_TestC2Ev
FNDA:1,_ZN51AccountBehaviourTest_ChangeBalanceWhenUnlocked_TestD0Ev
FNDA:1,_ZN51AccountBehaviourTest_ChangeBalanceWhenUnlocked_TestD2Ev
FNDA:1,_ZN49AccountBehaviourTest_ChangeBalanceWhenLocked_Test8TestBodyEv
FNDA:1,_ZN49AccountBehaviourTest_ChangeBalanceWhenLocked_TestC2Ev
FNDA:1,_ZN49AccountBehaviourTest_ChangeBalanceWhenLocked_TestD0Ev
FNDA:1,_ZN49AccountBehaviourTest_ChangeBalanceWhenLocked_TestD2Ev
FNDA:1,_ZN37AccountBehaviourTest_IdIsCorrect_Test8TestBodyEv
FNDA:1,_ZN37AccountBehaviourTest_IdIsCorrect_TestC2Ev
FNDA:1,_ZN37AccountBehaviourTest_IdIsCorrect_TestD0Ev
FNDA:1,_ZN37AccountBehaviourTest_IdIsCorrect_TestD2Ev
FNDA:4,_ZN18AccountBalanceTest5SetUpEv
FNDA:4,_ZN18AccountBalanceTest8TearDownEv
FNF:25
FNH:25
DA:8,4
DA:9,4
DA:12,13
DA:13,4
DA:14,4
DA:16,5
DA:26,4
DA:27,4
DA:30,4
DA:31,1
DA:32,1
DA:33,1
DA:34,1
DA:35,1
DA:37,4
DA:38,1
DA:39,1
DA:41,4
DA:42,1
DA:43,1
DA:44,1
DA:45,1
DA:47,4
DA:48,1
DA:49,1
LF:25
LH:25
end_of_record
TN:
SF:/home/ilyasov_ilya/ferdosiakrymskaa-svg/workspace/projects/lab05/lab05/tests/test_transaction.cpp
FN:103,110,_ZN44RealTransaction_SaveToDataBaseExecution_Test8TestBodyEv
FN:103,110,_ZN44RealTransaction_SaveToDataBaseExecution_TestC2Ev
FN:103,110,_ZN44RealTransaction_SaveToDataBaseExecution_TestD0Ev
FN:103,110,_ZN44RealTransaction_SaveToDataBaseExecution_TestD2Ev
FN:15,19,_ZN15TransactionTest5SetUpEv
FN:20,24,_ZN15TransactionTest8TearDownEv
FN:28,28,_ZN31TransactionTest_DefaultFee_Test8TestBodyEv
FN:28,28,_ZN31TransactionTest_DefaultFee_TestC2Ev
FN:28,28,_ZN31TransactionTest_DefaultFee_TestD0Ev
FN:28,28,_ZN31TransactionTest_DefaultFee_TestD2Ev
FN:32,32,_ZN27TransactionTest_SetFee_Test8TestBodyEv
FN:32,32,_ZN27TransactionTest_SetFee_TestC2Ev
FN:32,32,_ZN27TransactionTest_SetFee_TestD0Ev
FN:32,32,_ZN27TransactionTest_SetFee_TestD2Ev
FN:38,38,_ZN32TransactionTest_SameAccount_Test8TestBodyEv
FN:38,38,_ZN32TransactionTest_SameAccount_TestC2Ev
FN:38,38,_ZN32TransactionTest_SameAccount_TestD0Ev
FN:38,38,_ZN32TransactionTest_SameAccount_TestD2Ev
FN:43,43,_ZN32TransactionTest_NegativeSum_Test8TestBodyEv
FN:43,43,_ZN32TransactionTest_NegativeSum_TestC2Ev
FN:43,43,_ZN32TransactionTest_NegativeSum_TestD0Ev
FN:43,43,_ZN32TransactionTest_NegativeSum_TestD2Ev
FN:48,50,_ZN29TransactionTest_TooSmall_Test8TestBodyEv
FN:48,50,_ZN29TransactionTest_TooSmall_TestC2Ev
FN:48,50,_ZN29TransactionTest_TooSmall_TestD0Ev
FN:48,50,_ZN29TransactionTest_TooSmall_TestD2Ev
FN:53,58,_ZN31TransactionTest_FeeExceeds_Test8TestBodyEv
FN:53,58,_ZN31TransactionTest_FeeExceeds_TestC2Ev
FN:53,58,_ZN31TransactionTest_FeeExceeds_TestD0Ev
FN:53,58,_ZN31TransactionTest_FeeExceeds_TestD2Ev
FN:61,61,_ZN31TransactionTest_Successful_Test8TestBodyEv
FN:61,61,_ZN31TransactionTest_Successful_TestC2Ev
FN:61,61,_ZN31TransactionTest_Successful_TestD0Ev
FN:61,61,_ZN31TransactionTest_Successful_TestD2Ev
FN:82,82,_ZN35TransactionTest_NotEnoughFunds_Test8TestBodyEv
FN:82,82,_ZN35TransactionTest_NotEnoughFunds_TestC2Ev
FN:82,82,_ZN35TransactionTest_NotEnoughFunds_TestD0Ev
FN:82,82,_ZN35TransactionTest_NotEnoughFunds_TestD2Ev
FNDA:1,_ZN44RealTransaction_SaveToDataBaseExecution_Test8TestBodyEv
FNDA:1,_ZN44RealTransaction_SaveToDataBaseExecution_TestC2Ev
FNDA:1,_ZN44RealTransaction_SaveToDataBaseExecution_TestD0Ev
FNDA:1,_ZN44RealTransaction_SaveToDataBaseExecution_TestD2Ev
FNDA:8,_ZN15TransactionTest5SetUpEv
FNDA:8,_ZN15TransactionTest8TearDownEv
FNDA:1,_ZN31TransactionTest_DefaultFee_Test8TestBodyEv
FNDA:1,_ZN31TransactionTest_DefaultFee_TestC2Ev
FNDA:1,_ZN31TransactionTest_DefaultFee_TestD0Ev
FNDA:1,_ZN31TransactionTest_DefaultFee_TestD2Ev
FNDA:1,_ZN27TransactionTest_SetFee_Test8TestBodyEv
FNDA:1,_ZN27TransactionTest_SetFee_TestC2Ev
FNDA:1,_ZN27TransactionTest_SetFee_TestD0Ev
FNDA:1,_ZN27TransactionTest_SetFee_TestD2Ev
FNDA:1,_ZN32TransactionTest_SameAccount_Test8TestBodyEv
FNDA:1,_ZN32TransactionTest_SameAccount_TestC2Ev
FNDA:1,_ZN32TransactionTest_SameAccount_TestD0Ev
FNDA:1,_ZN32TransactionTest_SameAccount_TestD2Ev
FNDA:1,_ZN32TransactionTest_NegativeSum_Test8TestBodyEv
FNDA:1,_ZN32TransactionTest_NegativeSum_TestC2Ev
FNDA:1,_ZN32TransactionTest_NegativeSum_TestD0Ev
FNDA:1,_ZN32TransactionTest_NegativeSum_TestD2Ev
FNDA:1,_ZN29TransactionTest_TooSmall_Test8TestBodyEv
FNDA:1,_ZN29TransactionTest_TooSmall_TestC2Ev
FNDA:1,_ZN29TransactionTest_TooSmall_TestD0Ev
FNDA:1,_ZN29TransactionTest_TooSmall_TestD2Ev
FNDA:1,_ZN31TransactionTest_FeeExceeds_Test8TestBodyEv
FNDA:1,_ZN31TransactionTest_FeeExceeds_TestC2Ev
FNDA:1,_ZN31TransactionTest_FeeExceeds_TestD0Ev
FNDA:1,_ZN31TransactionTest_FeeExceeds_TestD2Ev
FNDA:1,_ZN31TransactionTest_Successful_Test8TestBodyEv
FNDA:1,_ZN31TransactionTest_Successful_TestC2Ev
FNDA:1,_ZN31TransactionTest_Successful_TestD0Ev
FNDA:1,_ZN31TransactionTest_Successful_TestD2Ev
FNDA:1,_ZN35TransactionTest_NotEnoughFunds_Test8TestBodyEv
FNDA:1,_ZN35TransactionTest_NotEnoughFunds_TestC2Ev
FNDA:1,_ZN35TransactionTest_NotEnoughFunds_TestD0Ev
FNDA:1,_ZN35TransactionTest_NotEnoughFunds_TestD2Ev
FNF:38
FNH:38
DA:15,8
DA:16,8
DA:17,8
DA:18,8
DA:19,8
DA:20,8
DA:21,8
DA:22,8
DA:23,8
DA:24,8
DA:28,4
DA:29,1
DA:30,1
DA:32,4
DA:33,1
DA:34,1
DA:35,1
DA:38,4
DA:39,1
DA:40,1
DA:43,4
DA:44,1
DA:45,1
DA:48,4
DA:49,1
DA:50,1
DA:53,4
DA:54,1
DA:56,1
DA:57,1
DA:58,1
DA:61,4
DA:62,1
DA:63,1
DA:65,1
DA:66,1
DA:67,1
DA:69,1
DA:70,1
DA:71,1
DA:73,1
DA:75,1
DA:76,1
DA:78,1
DA:79,1
DA:82,4
DA:83,1
DA:84,1
DA:86,1
DA:87,1
DA:88,1
DA:90,1
DA:91,1
DA:92,1
DA:94,1
DA:96,1
DA:97,1
DA:99,1
DA:100,1
DA:103,4
DA:104,1
DA:105,1
DA:106,1
DA:107,1
DA:108,1
DA:109,1
DA:110,1
LF:67
LH:67
end_of_record
TN:
SF:/home/ilyasov_ilya/ferdosiakrymskaa-svg/workspace/projects/lab05/lab05/third-party/gtest/googlemock/include/gmock/gmock-actions.h
FN:1254,1256,_ZNK7testing8internal15DoDefaultActioncvNS_6ActionIT_EEIFivEEEv
FN:1254,1256,_ZNK7testing8internal15DoDefaultActioncvNS_6ActionIT_EEIFvR7AccountS7_iEEEv
FN:1254,1256,_ZNK7testing8internal15DoDefaultActioncvNS_6ActionIT_EEIFviEEEv
FN:1254,1256,_ZNK7testing8internal15DoDefaultActioncvNS_6ActionIT_EEIFvvEEEv
FN:1845,1847,_ZN7testing6ReturnIiEENS_8internal12ReturnActionIT_EES3_
FN:1906,1908,_ZN7testing9DoDefaultEv
FN:252,252,_ZN7testing8internal19BuiltInDefaultValueIiE3GetEv
FN:252,252,_ZN7testing8internal19BuiltInDefaultValueIiE6ExistsEv
FN:455,457,_ZN7testing10OnceActionIFivEEC2INS_8internal12ReturnActionIiE4ImplIiEELi0EEEOT_
FN:484,484,_ZN7testing10OnceActionIFivEEC2EOS2_
FN:488,490,_ZNO7testing10OnceActionIFivEE4CallEv
FN:509,510,_ZN7testing10OnceActionIFivEE18StdFunctionAdaptorINS_8internal12ReturnActionIiE4ImplIiEEEC2IS8_EENS9_11CallableTagEOT_
FN:531,534,_ZNK7testing10OnceActionIFivEE18StdFunctionAdaptorINS_8internal12ReturnActionIiE4ImplIiEEEclIJEEEDTclclL_ZSt7declvalIS8_EDTcl9__declvalIT_ELi0EEEvEEspcl7declvalIT_EEEEDpOSE_
FN:595,595,_ZN7testing12DefaultValueIiE5IsSetEv
FN:599,601,_ZN7testing12DefaultValueIiE6ExistsEv
FN:606,609,_ZN7testing12DefaultValueIiE3GetEv
FN:683,683,_ZN7testing12DefaultValueIvE6ExistsEv
FN:684,684,_ZN7testing12DefaultValueIvE3GetEv
FN:752,752,_ZN7testing6ActionIFivEEC2Ev
FN:752,752,_ZN7testing6ActionIFvR7AccountS2_iEEC2Ev
FN:752,752,_ZN7testing6ActionIFviEEC2Ev
FN:752,752,_ZN7testing6ActionIFvvEEC2Ev
FN:762,764,_ZN7testing6ActionIFivEEC2INS_8internal16TypedExpectationIS1_E13ActionAdaptorEvEEOT_
FN:778,778,_ZNK7testing6ActionIFivEE11IsDoDefaultEv
FN:778,778,_ZNK7testing6ActionIFvR7AccountS2_iEE11IsDoDefaultEv
FN:778,778,_ZNK7testing6ActionIFviEE11IsDoDefaultEv
FN:778,778,_ZNK7testing6ActionIFvvEE11IsDoDefaultEv
FN:786,791,_ZNK7testing6ActionIFivEE7PerformESt5tupleIJEE
FN:786,791,_ZNK7testing6ActionIFvR7AccountS2_iEE7PerformESt5tupleIJS2_S2_iEE
FN:786,791,_ZNK7testing6ActionIFviEE7PerformESt5tupleIJiEE
FN:786,791,_ZNK7testing6ActionIFvvEE7PerformESt5tupleIJEE
FN:816,818,_ZN7testing6ActionIFivEE4InitINS_8internal16TypedExpectationIS1_E13ActionAdaptorEEEvOT_St17integral_constantIbLb1EE
FN:923,923,_ZN7testing8internal12ReturnActionIiEC2Ei
FN:932,934,_ZNO7testing8internal12ReturnActionIiEcvNS_10OnceActionIFT_DpT0_EEEIiJEvEEv
FN:954,955,_ZN7testing8internal12ReturnActionIiE4ImplIiEC2EOi
FN:961,961,_ZNO7testing8internal12ReturnActionIiE4ImplIiEclEv
FN:991,999,_ZN7testing8internal12ReturnActionIiE4ImplIiE5StateC2EOi
FNDA:2,_ZNK7testing8internal15DoDefaultActioncvNS_6ActionIT_EEIFivEEEv
FNDA:3,_ZNK7testing8internal15DoDefaultActioncvNS_6ActionIT_EEIFvR7AccountS7_iEEEv
FNDA:4,_ZNK7testing8internal15DoDefaultActioncvNS_6ActionIT_EEIFviEEEv
FNDA:8,_ZNK7testing8internal15DoDefaultActioncvNS_6ActionIT_EEIFvvEEEv
FNDA:2,_ZN7testing6ReturnIiEENS_8internal12ReturnActionIT_EES3_
FNDA:17,_ZN7testing9DoDefaultEv
FNDA:0,_ZN7testing8internal19BuiltInDefaultValueIiE3GetEv
FNDA:0,_ZN7testing8internal19BuiltInDefaultValueIiE6ExistsEv
FNDA:2,_ZN7testing10OnceActionIFivEEC2INS_8internal12ReturnActionIiE4ImplIiEELi0EEEOT_
FNDA:2,_ZN7testing10OnceActionIFivEEC2EOS2_
FNDA:2,_ZNO7testing10OnceActionIFivEE4CallEv
FNDA:2,_ZN7testing10OnceActionIFivEE18StdFunctionAdaptorINS_8internal12ReturnActionIiE4ImplIiEEEC2IS8_EENS9_11CallableTagEOT_
FNDA:2,_ZNK7testing10OnceActionIFivEE18StdFunctionAdaptorINS_8internal12ReturnActionIiE4ImplIiEEEclIJEEEDTclclL_ZSt7declvalIS8_EDTcl9__declvalIT_ELi0EEEvEEspcl7declvalIT_EEEEDpOSE_
FNDA:0,_ZN7testing12DefaultValueIiE5IsSetEv
FNDA:0,_ZN7testing12DefaultValueIiE6ExistsEv
FNDA:0,_ZN7testing12DefaultValueIiE3GetEv
FNDA:14,_ZN7testing12DefaultValueIvE6ExistsEv
FNDA:14,_ZN7testing12DefaultValueIvE3GetEv
FNDA:2,_ZN7testing6ActionIFivEEC2Ev
FNDA:3,_ZN7testing6ActionIFvR7AccountS2_iEEC2Ev
FNDA:4,_ZN7testing6ActionIFviEEC2Ev
FNDA:8,_ZN7testing6ActionIFvvEEC2Ev
FNDA:2,_ZN7testing6ActionIFivEEC2INS_8internal16TypedExpectationIS1_E13ActionAdaptorEvEEOT_
FNDA:4,_ZNK7testing6ActionIFivEE11IsDoDefaultEv
FNDA:2,_ZNK7testing6ActionIFvR7AccountS2_iEE11IsDoDefaultEv
FNDA:4,_ZNK7testing6ActionIFviEE11IsDoDefaultEv
FNDA:8,_ZNK7testing6ActionIFvvEE11IsDoDefaultEv
FNDA:2,_ZNK7testing6ActionIFivEE7PerformESt5tupleIJEE
FNDA:0,_ZNK7testing6ActionIFvR7AccountS2_iEE7PerformESt5tupleIJS2_S2_iEE
FNDA:0,_ZNK7testing6ActionIFviEE7PerformESt5tupleIJiEE
FNDA:0,_ZNK7testing6ActionIFvvEE7PerformESt5tupleIJEE
FNDA:2,_ZN7testing6ActionIFivEE4InitINS_8internal16TypedExpectationIS1_E13ActionAdaptorEEEvOT_St17integral_constantIbLb1EE
FNDA:2,_ZN7testing8internal12ReturnActionIiEC2Ei
FNDA:2,_ZNO7testing8internal12ReturnActionIiEcvNS_10OnceActionIFT_DpT0_EEEIiJEvEEv
FNDA:2,_ZN7testing8internal12ReturnActionIiE4ImplIiEC2EOi
FNDA:2,_ZNO7testing8internal12ReturnActionIiE4ImplIiEclEv
FNDA:2,_ZN7testing8internal12ReturnActionIiE4ImplIiE5StateC2EOi
FNF:37
FNH:29
DA:252,0
DA:455,2
DA:456,2
DA:457,2
DA:484,2
DA:488,2
DA:489,2
DA:509,2
DA:510,2
DA:531,2
DA:533,2
DA:595,0
DA:599,0
DA:600,0
DA:606,0
DA:607,0
DA:608,0
DA:683,14
DA:684,14
DA:752,17
DA:762,2
DA:763,2
DA:764,2
DA:778,18
DA:786,2
DA:787,2
DA:788,0
DA:790,2
DA:816,2
DA:817,2
DA:818,2
DA:923,2
DA:932,2
DA:933,2
DA:954,2
DA:955,2
DA:961,2
DA:991,2
DA:992,2
DA:999,2
DA:1254,17
DA:1255,17
DA:1845,2
DA:1846,2
DA:1906,17
DA:1907,17
LF:46
LH:38
end_of_record
TN:
SF:/home/ilyasov_ilya/ferdosiakrymskaa-svg/workspace/projects/lab05/lab05/third-party/gtest/googlemock/include/gmock/gmock-cardinalities.h
FN:113,115,_ZNK7testing11Cardinality22IsSaturatedByCallCountEi
FNDA:32,_ZNK7testing11Cardinality22IsSaturatedByCallCountEi
FNF:1
FNH:1
DA:113,32
DA:114,32
LF:2
LH:2
end_of_record
TN:
SF:/home/ilyasov_ilya/ferdosiakrymskaa-svg/workspace/projects/lab05/lab05/third-party/gtest/googlemock/include/gmock/gmock-matchers.h
FN:308,308,_ZN7testing25StringMatchResultListenerC2Ev
FN:311,311,_ZNK7testing25StringMatchResultListener3strB5cxx11Ev
FN:4241,4243,_ZN7testing1AIRKSt5tupleIJEEEENS_7MatcherIT_EEv
FN:4241,4243,_ZN7testing1AIRKSt5tupleIJR7AccountS3_iEEEENS_7MatcherIT_EEv
FN:4241,4243,_ZN7testing1AIRKSt5tupleIJiEEEENS_7MatcherIT_EEv
FN:565,570,_ZN7testing8internal15PrintIfNotEmptyERKNSt7__cxx1112basic_stringIcSt11char_traitsIcESaIcEEEPSo
FN:619,623,_ZN7testing8internal11TuplePrefixILm1EE7MatchesISt5tupleIJNS_7MatcherIR7AccountEES8_NS5_IiEEEES4_IJS7_S7_iEEEEbRKT_RKT0_
FN:619,623,_ZN7testing8internal11TuplePrefixILm1EE7MatchesISt5tupleIJNS_7MatcherIiEEEES4_IJiEEEEbRKT_RKT0_
FN:619,623,_ZN7testing8internal11TuplePrefixILm2EE7MatchesISt5tupleIJNS_7MatcherIR7AccountEES8_NS5_IiEEEES4_IJS7_S7_iEEEEbRKT_RKT0_
FN:619,623,_ZN7testing8internal11TuplePrefixILm3EE7MatchesISt5tupleIJNS_7MatcherIR7AccountEES8_NS5_IiEEEES4_IJS7_S7_iEEEEbRKT_RKT0_
FN:630,656,_ZN7testing8internal11TuplePrefixILm1EE22ExplainMatchFailuresToISt5tupleIJNS_7MatcherIR7AccountEES8_NS5_IiEEEES4_IJS7_S7_iEEEEvRKT_RKT0_PSo
FN:630,656,_ZN7testing8internal11TuplePrefixILm1EE22ExplainMatchFailuresToISt5tupleIJNS_7MatcherIiEEEES4_IJiEEEEvRKT_RKT0_PSo
FN:630,656,_ZN7testing8internal11TuplePrefixILm2EE22ExplainMatchFailuresToISt5tupleIJNS_7MatcherIR7AccountEES8_NS5_IiEEEES4_IJS7_S7_iEEEEvRKT_RKT0_PSo
FN:630,656,_ZN7testing8internal11TuplePrefixILm3EE22ExplainMatchFailuresToISt5tupleIJNS_7MatcherIR7AccountEES8_NS5_IiEEEES4_IJS7_S7_iEEEEvRKT_RKT0_PSo
FN:664,667,_ZN7testing8internal11TuplePrefixILm0EE7MatchesISt5tupleIJEES5_EEbRKT_RKT0_
FN:664,667,_ZN7testing8internal11TuplePrefixILm0EE7MatchesISt5tupleIJNS_7MatcherIR7AccountEES8_NS5_IiEEEES4_IJS7_S7_iEEEEbRKT_RKT0_
FN:664,667,_ZN7testing8internal11TuplePrefixILm0EE7MatchesISt5tupleIJNS_7MatcherIiEEEES4_IJiEEEEbRKT_RKT0_
FN:670,672,_ZN7testing8internal11TuplePrefixILm0EE22ExplainMatchFailuresToISt5tupleIJEES5_EEvRKT_RKT0_PSo
FN:670,672,_ZN7testing8internal11TuplePrefixILm0EE22ExplainMatchFailuresToISt5tupleIJNS_7MatcherIR7AccountEES8_NS5_IiEEEES4_IJS7_S7_iEEEEvRKT_RKT0_PSo
FN:670,672,_ZN7testing8internal11TuplePrefixILm0EE22ExplainMatchFailuresToISt5tupleIJNS_7MatcherIiEEEES4_IJiEEEEvRKT_RKT0_PSo
FN:681,690,_ZN7testing8internal12TupleMatchesISt5tupleIJEES3_EEbRKT_RKT0_
FN:681,690,_ZN7testing8internal12TupleMatchesISt5tupleIJNS_7MatcherIR7AccountEES6_NS3_IiEEEES2_IJS5_S5_iEEEEbRKT_RKT0_
FN:681,690,_ZN7testing8internal12TupleMatchesISt5tupleIJNS_7MatcherIiEEEES2_IJiEEEEbRKT_RKT0_
FN:695,699,_ZN7testing8internal26ExplainMatchFailureTupleToISt5tupleIJEES3_EEvRKT_RKT0_PSo
FN:695,699,_ZN7testing8internal26ExplainMatchFailureTupleToISt5tupleIJNS_7MatcherIR7AccountEES6_NS3_IiEEEES2_IJS5_S5_iEEEEvRKT_RKT0_PSo
FN:695,699,_ZN7testing8internal26ExplainMatchFailureTupleToISt5tupleIJNS_7MatcherIiEEEES2_IJiEEEEvRKT_RKT0_PSo
FN:750,752,_ZNK7testing8internal15AnythingMatcher15MatchAndExplainI7AccountEEbRKT_PSo
FN:750,752,_ZNK7testing8internal15AnythingMatcher15MatchAndExplainISt5tupleIJEEEEbRKT_PSo
FN:750,752,_ZNK7testing8internal15AnythingMatcher15MatchAndExplainISt5tupleIJR7AccountS5_iEEEEbRKT_PSo
FN:750,752,_ZNK7testing8internal15AnythingMatcher15MatchAndExplainISt5tupleIJiEEEEbRKT_PSo
FN:750,752,_ZNK7testing8internal15AnythingMatcher15MatchAndExplainIiEEbRKT_PSo
FN:753,753,_ZNK7testing8internal15AnythingMatcher10DescribeToEPSo
FN:754,759,_ZNK7testing8internal15AnythingMatcher18DescribeNegationToEPSo
FNDA:0,_ZN7testing25StringMatchResultListenerC2Ev
FNDA:0,_ZNK7testing25StringMatchResultListener3strB5cxx11Ev
FNDA:10,_ZN7testing1AIRKSt5tupleIJEEEENS_7MatcherIT_EEv
FNDA:3,_ZN7testing1AIRKSt5tupleIJR7AccountS3_iEEEENS_7MatcherIT_EEv
FNDA:4,_ZN7testing1AIRKSt5tupleIJiEEEENS_7MatcherIT_EEv
FNDA:0,_ZN7testing8internal15PrintIfNotEmptyERKNSt7__cxx1112basic_stringIcSt11char_traitsIcESaIcEEEPSo
FNDA:2,_ZN7testing8internal11TuplePrefixILm1EE7MatchesISt5tupleIJNS_7MatcherIR7AccountEES8_NS5_IiEEEES4_IJS7_S7_iEEEEbRKT_RKT0_
FNDA:4,_ZN7testing8internal11TuplePrefixILm1EE7MatchesISt5tupleIJNS_7MatcherIiEEEES4_IJiEEEEbRKT_RKT0_
FNDA:2,_ZN7testing8internal11TuplePrefixILm2EE7MatchesISt5tupleIJNS_7MatcherIR7AccountEES8_NS5_IiEEEES4_IJS7_S7_iEEEEbRKT_RKT0_
FNDA:2,_ZN7testing8internal11TuplePrefixILm3EE7MatchesISt5tupleIJNS_7MatcherIR7AccountEES8_NS5_IiEEEES4_IJS7_S7_iEEEEbRKT_RKT0_
FNDA:0,_ZN7testing8internal11TuplePrefixILm1EE22ExplainMatchFailuresToISt5tupleIJNS_7MatcherIR7AccountEES8_NS5_IiEEEES4_IJS7_S7_iEEEEvRKT_RKT0_PSo
FNDA:0,_ZN7testing8internal11TuplePrefixILm1EE22ExplainMatchFailuresToISt5tupleIJNS_7MatcherIiEEEES4_IJiEEEEvRKT_RKT0_PSo
FNDA:0,_ZN7testing8internal11TuplePrefixILm2EE22ExplainMatchFailuresToISt5tupleIJNS_7MatcherIR7AccountEES8_NS5_IiEEEES4_IJS7_S7_iEEEEvRKT_RKT0_PSo
FNDA:0,_ZN7testing8internal11TuplePrefixILm3EE22ExplainMatchFailuresToISt5tupleIJNS_7MatcherIR7AccountEES8_NS5_IiEEEES4_IJS7_S7_iEEEEvRKT_RKT0_PSo
FNDA:10,_ZN7testing8internal11TuplePrefixILm0EE7MatchesISt5tupleIJEES5_EEbRKT_RKT0_
FNDA:2,_ZN7testing8internal11TuplePrefixILm0EE7MatchesISt5tupleIJNS_7MatcherIR7AccountEES8_NS5_IiEEEES4_IJS7_S7_iEEEEbRKT_RKT0_
FNDA:4,_ZN7testing8internal11TuplePrefixILm0EE7MatchesISt5tupleIJNS_7MatcherIiEEEES4_IJiEEEEbRKT_RKT0_
FNDA:0,_ZN7testing8internal11TuplePrefixILm0EE22ExplainMatchFailuresToISt5tupleIJEES5_EEvRKT_RKT0_PSo
FNDA:0,_ZN7testing8internal11TuplePrefixILm0EE22ExplainMatchFailuresToISt5tupleIJNS_7MatcherIR7AccountEES8_NS5_IiEEEES4_IJS7_S7_iEEEEvRKT_RKT0_PSo
FNDA:0,_ZN7testing8internal11TuplePrefixILm0EE22ExplainMatchFailuresToISt5tupleIJNS_7MatcherIiEEEES4_IJiEEEEvRKT_RKT0_PSo
FNDA:10,_ZN7testing8internal12TupleMatchesISt5tupleIJEES3_EEbRKT_RKT0_
FNDA:2,_ZN7testing8internal12TupleMatchesISt5tupleIJNS_7MatcherIR7AccountEES6_NS3_IiEEEES2_IJS5_S5_iEEEEbRKT_RKT0_
FNDA:4,_ZN7testing8internal12TupleMatchesISt5tupleIJNS_7MatcherIiEEEES2_IJiEEEEbRKT_RKT0_
FNDA:0,_ZN7testing8internal26ExplainMatchFailureTupleToISt5tupleIJEES3_EEvRKT_RKT0_PSo
FNDA:0,_ZN7testing8internal26ExplainMatchFailureTupleToISt5tupleIJNS_7MatcherIR7AccountEES6_NS3_IiEEEES2_IJS5_S5_iEEEEvRKT_RKT0_PSo
FNDA:0,_ZN7testing8internal26ExplainMatchFailureTupleToISt5tupleIJNS_7MatcherIiEEEES2_IJiEEEEvRKT_RKT0_PSo
FNDA:4,_ZNK7testing8internal15AnythingMatcher15MatchAndExplainI7AccountEEbRKT_PSo
FNDA:10,_ZNK7testing8internal15AnythingMatcher15MatchAndExplainISt5tupleIJEEEEbRKT_PSo
FNDA:2,_ZNK7testing8internal15AnythingMatcher15MatchAndExplainISt5tupleIJR7AccountS5_iEEEEbRKT_PSo
FNDA:4,_ZNK7testing8internal15AnythingMatcher15MatchAndExplainISt5tupleIJiEEEEbRKT_PSo
FNDA:0,_ZNK7testing8internal15AnythingMatcher15MatchAndExplainIiEEbRKT_PSo
FNDA:0,_ZNK7testing8internal15AnythingMatcher10DescribeToEPSo
FNDA:0,_ZNK7testing8internal15AnythingMatcher18DescribeNegationToEPSo
FNF:33
FNH:17
DA:308,0
DA:311,0
DA:565,0
DA:567,0
DA:568,0
DA:570,0
DA:619,10
DA:621,20
DA:622,20
DA:630,0
DA:634,0
DA:638,0
DA:639,0
DA:641,0
DA:642,0
DA:643,0
DA:644,0
DA:645,0
DA:646,0
DA:652,0
DA:653,0
DA:654,0
DA:656,0
DA:664,16
DA:666,16
DA:670,0
DA:672,0
DA:681,16
DA:688,16
DA:689,16
DA:695,0
DA:697,0
DA:699,0
DA:750,20
DA:751,20
DA:753,0
DA:754,0
DA:758,0
DA:759,0
DA:4241,17
DA:4242,17
LF:41
LH:12
end_of_record
TN:
SF:/home/ilyasov_ilya/ferdosiakrymskaa-svg/workspace/projects/lab05/lab05/third-party/gtest/googlemock/include/gmock/gmock-nice-strict.h
FN:137,139,_ZN7testing8internal14StrictMockImplI11MockAccountEC2Ev
FN:137,139,_ZN7testing8internal14StrictMockImplI15MockTransactionEC2Ev
FN:141,143,_ZN7testing8internal14StrictMockImplI11MockAccountED2Ev
FN:141,143,_ZN7testing8internal14StrictMockImplI15MockTransactionED2Ev
FN:242,245,_ZN7testing10StrictMockI15MockTransactionEC2Ev
FN:261,266,_ZN7testing10StrictMockI11MockAccountEC2IiiJEEEOT_OT0_DpOT1_
FNDA:16,_ZN7testing8internal14StrictMockImplI11MockAccountEC2Ev
FNDA:8,_ZN7testing8internal14StrictMockImplI15MockTransactionEC2Ev
FNDA:16,_ZN7testing8internal14StrictMockImplI11MockAccountED2Ev
FNDA:8,_ZN7testing8internal14StrictMockImplI15MockTransactionED2Ev
FNDA:8,_ZN7testing10StrictMockI15MockTransactionEC2Ev
FNDA:16,_ZN7testing10StrictMockI11MockAccountEC2IiiJEEEOT_OT0_DpOT1_
FNF:6
FNH:6
DA:137,24
DA:138,24
DA:139,24
DA:141,24
DA:142,24
DA:143,24
DA:242,8
DA:245,8
DA:261,16
DA:262,32
DA:263,16
DA:266,16
LF:12
LH:12
end_of_record
TN:
SF:/home/ilyasov_ilya/ferdosiakrymskaa-svg/workspace/projects/lab05/lab05/third-party/gtest/googlemock/include/gmock/gmock-spec-builders.h
FN:1003,1010,_ZN7testing8internal16TypedExpectationIFivEE8WillOnceENS_10OnceActionIS2_EE
FN:1018,1030,_ZN7testing8internal16TypedExpectationIFivEE8WillOnceIJEvEERS3_NS_6ActionIS2_EE
FN:1081,1081,_ZNK7testing8internal16TypedExpectationIFivEE15repeated_actionEv
FN:1081,1081,_ZNK7testing8internal16TypedExpectationIFvR7AccountS3_iEE15repeated_actionEv
FN:1081,1081,_ZNK7testing8internal16TypedExpectationIFviEE15repeated_actionEv
FN:1081,1081,_ZNK7testing8internal16TypedExpectationIFvvEE15repeated_actionEv
FN:1085,1091,_ZN7testing8internal16TypedExpectationIFivEE27MaybeDescribeExtraMatcherToEPSo
FN:1085,1091,_ZN7testing8internal16TypedExpectationIFvR7AccountS3_iEE27MaybeDescribeExtraMatcherToEPSo
FN:1085,1091,_ZN7testing8internal16TypedExpectationIFviEE27MaybeDescribeExtraMatcherToEPSo
FN:1085,1091,_ZN7testing8internal16TypedExpectationIFvvEE27MaybeDescribeExtraMatcherToEPSo
FN:1102,1104,_ZNK7testing8internal16TypedExpectationIFivEE13ActionAdaptorclEv
FN:1109,1109,_ZN7testing8internal16TypedExpectationIFivEE9GetHandleEv
FN:1109,1109,_ZN7testing8internal16TypedExpectationIFvR7AccountS3_iEE9GetHandleEv
FN:1109,1109,_ZN7testing8internal16TypedExpectationIFviEE9GetHandleEv
FN:1109,1109,_ZN7testing8internal16TypedExpectationIFvvEE9GetHandleEv
FN:1116,1120,_ZNK7testing8internal16TypedExpectationIFivEE7MatchesERKSt5tupleIJEE
FN:1116,1120,_ZNK7testing8internal16TypedExpectationIFvR7AccountS3_iEE7MatchesERKSt5tupleIJS3_S3_iEE
FN:1116,1120,_ZNK7testing8internal16TypedExpectationIFviEE7MatchesERKSt5tupleIJiEE
FN:1116,1120,_ZNK7testing8internal16TypedExpectationIFvvEE7MatchesERKSt5tupleIJEE
FN:1124,1134,_ZNK7testing8internal16TypedExpectationIFivEE21ShouldHandleArgumentsERKSt5tupleIJEE
FN:1124,1134,_ZNK7testing8internal16TypedExpectationIFvR7AccountS3_iEE21ShouldHandleArgumentsERKSt5tupleIJS3_S3_iEE
FN:1124,1134,_ZNK7testing8internal16TypedExpectationIFviEE21ShouldHandleArgumentsERKSt5tupleIJiEE
FN:1124,1134,_ZNK7testing8internal16TypedExpectationIFvvEE21ShouldHandleArgumentsERKSt5tupleIJEE
FN:1138,1178,_ZNK7testing8internal16TypedExpectationIFivEE20ExplainMatchResultToERKSt5tupleIJEEPSo
FN:1138,1178,_ZNK7testing8internal16TypedExpectationIFvR7AccountS3_iEE20ExplainMatchResultToERKSt5tupleIJS3_S3_iEEPSo
FN:1138,1178,_ZNK7testing8internal16TypedExpectationIFviEE20ExplainMatchResultToERKSt5tupleIJiEEPSo
FN:1138,1178,_ZNK7testing8internal16TypedExpectationIFvvEE20ExplainMatchResultToERKSt5tupleIJEEPSo
FN:1181,1209,_ZNK7testing8internal16TypedExpectationIFivEE16GetCurrentActionEPKNS0_14FunctionMockerIS2_EERKSt5tupleIJEE
FN:1181,1209,_ZNK7testing8internal16TypedExpectationIFvR7AccountS3_iEE16GetCurrentActionEPKNS0_14FunctionMockerIS4_EERKSt5tupleIJS3_S3_iEE
FN:1181,1209,_ZNK7testing8internal16TypedExpectationIFviEE16GetCurrentActionEPKNS0_14FunctionMockerIS2_EERKSt5tupleIJiEE
FN:1181,1209,_ZNK7testing8internal16TypedExpectationIFvvEE16GetCurrentActionEPKNS0_14FunctionMockerIS2_EERKSt5tupleIJEE
FN:1218,1253,_ZN7testing8internal16TypedExpectationIFivEE21GetActionForArgumentsEPKNS0_14FunctionMockerIS2_EERKSt5tupleIJEEPSoSC_
FN:1218,1253,_ZN7testing8internal16TypedExpectationIFvR7AccountS3_iEE21GetActionForArgumentsEPKNS0_14FunctionMockerIS4_EERKSt5tupleIJS3_S3_iEEPSoSE_
FN:1218,1253,_ZN7testing8internal16TypedExpectationIFviEE21GetActionForArgumentsEPKNS0_14FunctionMockerIS2_EERKSt5tupleIJiEEPSoSC_
FN:1218,1253,_ZN7testing8internal16TypedExpectationIFvvEE21GetActionForArgumentsEPKNS0_14FunctionMockerIS2_EERKSt5tupleIJEEPSoSC_
FN:1290,1292,_ZN7testing8internal8MockSpecIFivEEC2EPNS0_14FunctionMockerIS2_EERKSt5tupleIJEE
FN:1290,1292,_ZN7testing8internal8MockSpecIFvR7AccountS3_iEEC2EPNS0_14FunctionMockerIS4_EERKSt5tupleIJNS_7MatcherIS3_EESB_NSA_IiEEEE
FN:1290,1292,_ZN7testing8internal8MockSpecIFviEEC2EPNS0_14FunctionMockerIS2_EERKSt5tupleIJNS_7MatcherIiEEEE
FN:1290,1292,_ZN7testing8internal8MockSpecIFvvEEC2EPNS0_14FunctionMockerIS2_EERKSt5tupleIJEE
FN:1306,1314,_ZN7testing8internal8MockSpecIFivEE18InternalExpectedAtEPKciS5_S5_
FN:1306,1314,_ZN7testing8internal8MockSpecIFvR7AccountS3_iEE18InternalExpectedAtEPKciS7_S7_
FN:1306,1314,_ZN7testing8internal8MockSpecIFviEE18InternalExpectedAtEPKciS5_S5_
FN:1306,1314,_ZN7testing8internal8MockSpecIFvvEE18InternalExpectedAtEPKciS5_S5_
FN:1319,1321,_ZN7testing8internal8MockSpecIFivEEclERKNS0_15WithoutMatchersEPv
FN:1319,1321,_ZN7testing8internal8MockSpecIFvR7AccountS3_iEEclERKNS0_15WithoutMatchersEPv
FN:1319,1321,_ZN7testing8internal8MockSpecIFviEEclERKNS0_15WithoutMatchersEPv
FN:1319,1321,_ZN7testing8internal8MockSpecIFvvEEclERKNS0_15WithoutMatchersEPv
FN:1381,1385,_ZN7testing8internal19PrintAsActionResultIiEEvRKT_RSo
FN:1406,1408,_ZN7testing8internal25UntypedFunctionMockerBase31UninterestingCallCleanupHandlerD2Ev
FN:1419,1434,_ZN7testing8internal25UntypedFunctionMockerBase21FailureCleanupHandlerD2Ev
FN:1449,1449,_ZN7testing8internal14FunctionMockerIFivEEC2Ev
FN:1449,1449,_ZN7testing8internal14FunctionMockerIFvR7AccountS3_iEEC2Ev
FN:1449,1449,_ZN7testing8internal14FunctionMockerIFviEEC2Ev
FN:1449,1449,_ZN7testing8internal14FunctionMockerIFvvEEC2Ev
FN:1469,1474,_ZN7testing8internal14FunctionMockerIFivEED0Ev
FN:1469,1474,_ZN7testing8internal14FunctionMockerIFivEED2Ev
FN:1469,1474,_ZN7testing8internal14FunctionMockerIFvR7AccountS3_iEED0Ev
FN:1469,1474,_ZN7testing8internal14FunctionMockerIFvR7AccountS3_iEED2Ev
FN:1469,1474,_ZN7testing8internal14FunctionMockerIFviEED0Ev
FN:1469,1474,_ZN7testing8internal14FunctionMockerIFviEED2Ev
FN:1469,1474,_ZN7testing8internal14FunctionMockerIFvvEED0Ev
FN:1469,1474,_ZN7testing8internal14FunctionMockerIFvvEED2Ev
FN:1479,1488,_ZNK7testing8internal14FunctionMockerIFivEE14FindOnCallSpecERKSt5tupleIJEE
FN:1479,1488,_ZNK7testing8internal14FunctionMockerIFvR7AccountS3_iEE14FindOnCallSpecERKSt5tupleIJS3_S3_iEE
FN:1479,1488,_ZNK7testing8internal14FunctionMockerIFviEE14FindOnCallSpecERKSt5tupleIJiEE
FN:1479,1488,_ZNK7testing8internal14FunctionMockerIFvvEE14FindOnCallSpecERKSt5tupleIJEE
FN:1497,1515,_ZNK7testing8internal14FunctionMockerIFivEE20PerformDefaultActionEOSt5tupleIJEERKNSt7__cxx1112basic_stringIcSt11char_traitsIcESaIcEEE
FN:1497,1515,_ZNK7testing8internal14FunctionMockerIFvR7AccountS3_iEE20PerformDefaultActionEOSt5tupleIJS3_S3_iEERKNSt7__cxx1112basic_stringIcSt11char_traitsIcESaIcEEE
FN:1497,1515,_ZNK7testing8internal14FunctionMockerIFviEE20PerformDefaultActionEOSt5tupleIJiEERKNSt7__cxx1112basic_stringIcSt11char_traitsIcESaIcEEE
FN:1497,1515,_ZNK7testing8internal14FunctionMockerIFvvEE20PerformDefaultActionEOSt5tupleIJEERKNSt7__cxx1112basic_stringIcSt11char_traitsIcESaIcEEE
FN:1519,1542,_ZN7testing8internal14FunctionMockerIFivEE25ClearDefaultActionsLockedEv
FN:1519,1542,_ZN7testing8internal14FunctionMockerIFvR7AccountS3_iEE25ClearDefaultActionsLockedEv
FN:1519,1542,_ZN7testing8internal14FunctionMockerIFviEE25ClearDefaultActionsLockedEv
FN:1519,1542,_ZN7testing8internal14FunctionMockerIFvvEE25ClearDefaultActionsLockedEv
FN:1547,1549,_ZN7testing8internal14FunctionMockerIFivEE6InvokeEv
FN:1547,1549,_ZN7testing8internal14FunctionMockerIFvR7AccountS3_iEE6InvokeES3_S3_i
FN:1547,1549,_ZN7testing8internal14FunctionMockerIFviEE6InvokeEi
FN:1547,1549,_ZN7testing8internal14FunctionMockerIFvvEE6InvokeEv
FN:1551,1553,_ZN7testing8internal14FunctionMockerIFivEE4WithEv
FN:1551,1553,_ZN7testing8internal14FunctionMockerIFvR7AccountS3_iEE4WithENS_7MatcherIS3_EES7_NS6_IiEE
FN:1551,1553,_ZN7testing8internal14FunctionMockerIFviEE4WithENS_7MatcherIiEE
FN:1551,1553,_ZN7testing8internal14FunctionMockerIFvvEE4WithEv
FN:1570,1589,_ZN7testing8internal14FunctionMockerIFivEE17AddNewExpectationEPKciRKNSt7__cxx1112basic_stringIcSt11char_traitsIcESaIcEEERKSt5tupleIJEE
FN:1570,1589,_ZN7testing8internal14FunctionMockerIFvR7AccountS3_iEE17AddNewExpectationEPKciRKNSt7__cxx1112basic_stringIcSt11char_traitsIcESaIcEEERKSt5tupleIJNS_7MatcherIS3_EESI_NSH_IiEEEE
FN:1570,1589,_ZN7testing8internal14FunctionMockerIFviEE17AddNewExpectationEPKciRKNSt7__cxx1112basic_stringIcSt11char_traitsIcESaIcEEERKSt5tupleIJNS_7MatcherIiEEEE
FN:1570,1589,_ZN7testing8internal14FunctionMockerIFvvEE17AddNewExpectationEPKciRKNSt7__cxx1112basic_stringIcSt11char_traitsIcESaIcEEERKSt5tupleIJEE
FN:1600,1611,_ZNK7testing8internal14FunctionMockerIFivEE23DescribeDefaultActionToERKSt5tupleIJEEPSo
FN:1600,1611,_ZNK7testing8internal14FunctionMockerIFvR7AccountS3_iEE23DescribeDefaultActionToERKSt5tupleIJS3_S3_iEEPSo
FN:1600,1611,_ZNK7testing8internal14FunctionMockerIFviEE23DescribeDefaultActionToERKSt5tupleIJiEEPSo
FN:1600,1611,_ZNK7testing8internal14FunctionMockerIFvvEE23DescribeDefaultActionToERKSt5tupleIJEEPSo
FN:1616,1625,_ZNK7testing8internal14FunctionMockerIFivEE32UntypedDescribeUninterestingCallEPKvPSo
FN:1616,1625,_ZNK7testing8internal14FunctionMockerIFvR7AccountS3_iEE32UntypedDescribeUninterestingCallEPKvPSo
FN:1616,1625,_ZNK7testing8internal14FunctionMockerIFviEE32UntypedDescribeUninterestingCallEPKvPSo
FN:1616,1625,_ZNK7testing8internal14FunctionMockerIFvvEE32UntypedDescribeUninterestingCallEPKvPSo
FN:1643,1665,_ZN7testing8internal14FunctionMockerIFivEE30UntypedFindMatchingExpectationEPKvPS5_PbPSoS8_
FN:1643,1665,_ZN7testing8internal14FunctionMockerIFvR7AccountS3_iEE30UntypedFindMatchingExpectationEPKvPS7_PbPSoSA_
FN:1643,1665,_ZN7testing8internal14FunctionMockerIFviEE30UntypedFindMatchingExpectationEPKvPS5_PbPSoS8_
FN:1643,1665,_ZN7testing8internal14FunctionMockerIFvvEE30UntypedFindMatchingExpectationEPKvPS5_PbPSoS8_
FN:1668,1673,_ZNK7testing8internal14FunctionMockerIFivEE16UntypedPrintArgsEPKvPSo
FN:1668,1673,_ZNK7testing8internal14FunctionMockerIFvR7AccountS3_iEE16UntypedPrintArgsEPKvPSo
FN:1668,1673,_ZNK7testing8internal14FunctionMockerIFviEE16UntypedPrintArgsEPKvPSo
FN:1668,1673,_ZNK7testing8internal14FunctionMockerIFvvEE16UntypedPrintArgsEPKvPSo
FN:1677,1692,_ZNK7testing8internal14FunctionMockerIFivEE29FindMatchingExpectationLockedERKSt5tupleIJEE
FN:1677,1692,_ZNK7testing8internal14FunctionMockerIFvR7AccountS3_iEE29FindMatchingExpectationLockedERKSt5tupleIJS3_S3_iEE
FN:1677,1692,_ZNK7testing8internal14FunctionMockerIFviEE29FindMatchingExpectationLockedERKSt5tupleIJiEE
FN:1677,1692,_ZNK7testing8internal14FunctionMockerIFvvEE29FindMatchingExpectationLockedERKSt5tupleIJEE
FN:1695,1703,_ZNK7testing8internal14FunctionMockerIFivEE33FormatUnexpectedCallMessageLockedERKSt5tupleIJEEPSoS8_
FN:1695,1703,_ZNK7testing8internal14FunctionMockerIFvR7AccountS3_iEE33FormatUnexpectedCallMessageLockedERKSt5tupleIJS3_S3_iEEPSoSA_
FN:1695,1703,_ZNK7testing8internal14FunctionMockerIFviEE33FormatUnexpectedCallMessageLockedERKSt5tupleIJiEEPSoS8_
FN:1695,1703,_ZNK7testing8internal14FunctionMockerIFvvEE33FormatUnexpectedCallMessageLockedERKSt5tupleIJEEPSoS8_
FN:1707,1728,_ZNK7testing8internal14FunctionMockerIFivEE28PrintTriedExpectationsLockedERKSt5tupleIJEEPSo
FN:1707,1728,_ZNK7testing8internal14FunctionMockerIFvR7AccountS3_iEE28PrintTriedExpectationsLockedERKSt5tupleIJS3_S3_iEEPSo
FN:1707,1728,_ZNK7testing8internal14FunctionMockerIFviEE28PrintTriedExpectationsLockedERKSt5tupleIJiEEPSo
FN:1707,1728,_ZNK7testing8internal14FunctionMockerIFvvEE28PrintTriedExpectationsLockedERKSt5tupleIJEEPSo
FN:1733,1743,_ZNK7testing8internal14FunctionMockerIFivEE13PerformActionEPKvOSt5tupleIJEERKNSt7__cxx1112basic_stringIcSt11char_traitsIcESaIcEEE
FN:1733,1743,_ZNK7testing8internal14FunctionMockerIFvR7AccountS3_iEE13PerformActionEPKvOSt5tupleIJS3_S3_iEERKNSt7__cxx1112basic_stringIcSt11char_traitsIcESaIcEEE
FN:1733,1743,_ZNK7testing8internal14FunctionMockerIFviEE13PerformActionEPKvOSt5tupleIJiEERKNSt7__cxx1112basic_stringIcSt11char_traitsIcESaIcEEE
FN:1733,1743,_ZNK7testing8internal14FunctionMockerIFvvEE13PerformActionEPKvOSt5tupleIJEERKNSt7__cxx1112basic_stringIcSt11char_traitsIcESaIcEEE
FN:1758,1766,_ZN7testing8internal14FunctionMockerIFivEE27PerformActionAndPrintResultIiLi0EEEiPKvOSt5tupleIJEERKNSt7__cxx1112basic_stringIcSt11char_traitsIcESaIcEEERSo
FN:1773,1778,_ZN7testing8internal14FunctionMockerIFvR7AccountS3_iEE27PerformActionAndPrintResultIvLi0EEEvPKvOSt5tupleIJS3_S3_iEERKNSt7__cxx1112basic_stringIcSt11char_traitsIcESaIcEEERSo
FN:1773,1778,_ZN7testing8internal14FunctionMockerIFviEE27PerformActionAndPrintResultIvLi0EEEvPKvOSt5tupleIJiEERKNSt7__cxx1112basic_stringIcSt11char_traitsIcESaIcEEERSo
FN:1773,1778,_ZN7testing8internal14FunctionMockerIFvvEE27PerformActionAndPrintResultIvLi0EEEvPKvOSt5tupleIJEERKNSt7__cxx1112basic_stringIcSt11char_traitsIcESaIcEEERSo
FN:1789,1898,_ZN7testing8internal14FunctionMockerIFivEE10InvokeWithEOSt5tupleIJEE
FN:1789,1898,_ZN7testing8internal14FunctionMockerIFvR7AccountS3_iEE10InvokeWithEOSt5tupleIJS3_S3_iEE
FN:1789,1898,_ZN7testing8internal14FunctionMockerIFviEE10InvokeWithEOSt5tupleIJiEE
FN:1789,1898,_ZN7testing8internal14FunctionMockerIFvvEE10InvokeWithEOSt5tupleIJEE
FN:246,246,_ZNK7testing8internal21UntypedOnCallSpecBase4fileEv
FN:247,247,_ZNK7testing8internal21UntypedOnCallSpecBase4lineEv
FN:260,263,_ZNK7testing8internal21UntypedOnCallSpecBase18AssertSpecPropertyEbRKNSt7__cxx1112basic_stringIcSt11char_traitsIcESaIcEEE
FN:323,325,_ZNK7testing8internal10OnCallSpecIFivEE7MatchesERKSt5tupleIJEE
FN:323,325,_ZNK7testing8internal10OnCallSpecIFvR7AccountS3_iEE7MatchesERKSt5tupleIJS3_S3_iEE
FN:323,325,_ZNK7testing8internal10OnCallSpecIFviEE7MatchesERKSt5tupleIJiEE
FN:323,325,_ZNK7testing8internal10OnCallSpecIFvvEE7MatchesERKSt5tupleIJEE
FN:328,333,_ZNK7testing8internal10OnCallSpecIFivEE9GetActionEv
FN:328,333,_ZNK7testing8internal10OnCallSpecIFvR7AccountS3_iEE9GetActionEv
FN:328,333,_ZNK7testing8internal10OnCallSpecIFviEE9GetActionEv
FN:328,333,_ZNK7testing8internal10OnCallSpecIFvvEE9GetActionEv
FN:539,541,_ZNK7testing11Expectation16expectation_baseEv
FN:569,569,_ZN7testing14ExpectationSetC2Ev
FN:605,605,_ZNK7testing14ExpectationSet5beginEv
FN:606,606,_ZNK7testing14ExpectationSet3endEv
FN:693,693,_ZNK7testing8internal15ExpectationBase4fileEv
FN:694,694,_ZNK7testing8internal15ExpectationBase4lineEv
FN:695,695,_ZNK7testing8internal15ExpectationBase11source_textEv
FN:697,697,_ZNK7testing8internal15ExpectationBase11cardinalityEv
FN:700,702,_ZNK7testing8internal15ExpectationBase18DescribeLocationToEPSo
FN:748,751,_ZNK7testing8internal15ExpectationBase18ExpectSpecPropertyEbRKNSt7__cxx1112basic_stringIcSt11char_traitsIcESaIcEEE
FN:759,759,_ZNK7testing8internal15ExpectationBase21cardinality_specifiedEv
FN:762,764,_ZN7testing8internal15ExpectationBase15set_cardinalityERKNS_11CardinalityE
FN:774,777,_ZNK7testing8internal15ExpectationBase10is_retiredEv
FN:780,783,_ZN7testing8internal15ExpectationBase6RetireEv
FN:787,787,_ZNK7testing8internal15ExpectationBase14GetDescriptionB5cxx11Ev
FN:796,799,_ZNK7testing8internal15ExpectationBase11IsSaturatedEv
FN:817,820,_ZNK7testing8internal15ExpectationBase10call_countEv
FN:823,826,_ZN7testing8internal15ExpectationBase18IncrementCallCountEv
FN:887,897,_ZN7testing8internal16TypedExpectationIFivEEC2EPNS0_14FunctionMockerIS2_EEPKciRKNSt7__cxx1112basic_stringIcSt11char_traitsIcESaIcEEERKSt5tupleIJEE
FN:887,897,_ZN7testing8internal16TypedExpectationIFvR7AccountS3_iEEC2EPNS0_14FunctionMockerIS4_EEPKciRKNSt7__cxx1112basic_stringIcSt11char_traitsIcESaIcEEERKSt5tupleIJNS_7MatcherIS3_EESL_NSK_IiEEEE
FN:887,897,_ZN7testing8internal16TypedExpectationIFviEEC2EPNS0_14FunctionMockerIS2_EEPKciRKNSt7__cxx1112basic_stringIcSt11char_traitsIcESaIcEEERKSt5tupleIJNS_7MatcherIiEEEE
FN:887,897,_ZN7testing8internal16TypedExpectationIFvvEEC2EPNS0_14FunctionMockerIS2_EEPKciRKNSt7__cxx1112basic_stringIcSt11char_traitsIcESaIcEEERKSt5tupleIJEE
FN:899,907,_ZN7testing8internal16TypedExpectationIFivEED0Ev
FN:899,907,_ZN7testing8internal16TypedExpectationIFivEED2Ev
FN:899,907,_ZN7testing8internal16TypedExpectationIFvR7AccountS3_iEED0Ev
FN:899,907,_ZN7testing8internal16TypedExpectationIFvR7AccountS3_iEED2Ev
FN:899,907,_ZN7testing8internal16TypedExpectationIFviEED0Ev
FN:899,907,_ZN7testing8internal16TypedExpectationIFviEED2Ev
FN:899,907,_ZN7testing8internal16TypedExpectationIFvvEED0Ev
FN:899,907,_ZN7testing8internal16TypedExpectationIFvvEED2Ev
FN:935,938,_ZN7testing8internal16TypedExpectationIFvR7AccountS3_iEE5TimesERKNS_11CardinalityE
FN:941,941,_ZN7testing8internal16TypedExpectationIFvR7AccountS3_iEE5TimesEi
FNDA:2,_ZN7testing8internal16TypedExpectationIFivEE8WillOnceENS_10OnceActionIS2_EE
FNDA:2,_ZN7testing8internal16TypedExpectationIFivEE8WillOnceIJEvEERS3_NS_6ActionIS2_EE
FNDA:0,_ZNK7testing8internal16TypedExpectationIFivEE15repeated_actionEv
FNDA:2,_ZNK7testing8internal16TypedExpectationIFvR7AccountS3_iEE15repeated_actionEv
FNDA:4,_ZNK7testing8internal16TypedExpectationIFviEE15repeated_actionEv
FNDA:8,_ZNK7testing8internal16TypedExpectationIFvvEE15repeated_actionEv
FNDA:0,_ZN7testing8internal16TypedExpectationIFivEE27MaybeDescribeExtraMatcherToEPSo
FNDA:0,_ZN7testing8internal16TypedExpectationIFvR7AccountS3_iEE27MaybeDescribeExtraMatcherToEPSo
FNDA:0,_ZN7testing8internal16TypedExpectationIFviEE27MaybeDescribeExtraMatcherToEPSo
FNDA:0,_ZN7testing8internal16TypedExpectationIFvvEE27MaybeDescribeExtraMatcherToEPSo
FNDA:2,_ZNK7testing8internal16TypedExpectationIFivEE13ActionAdaptorclEv
FNDA:0,_ZN7testing8internal16TypedExpectationIFivEE9GetHandleEv
FNDA:0,_ZN7testing8internal16TypedExpectationIFvR7AccountS3_iEE9GetHandleEv
FNDA:0,_ZN7testing8internal16TypedExpectationIFviEE9GetHandleEv
FNDA:0,_ZN7testing8internal16TypedExpectationIFvvEE9GetHandleEv
FNDA:2,_ZNK7testing8internal16TypedExpectationIFivEE7MatchesERKSt5tupleIJEE
FNDA:2,_ZNK7testing8internal16TypedExpectationIFvR7AccountS3_iEE7MatchesERKSt5tupleIJS3_S3_iEE
FNDA:4,_ZNK7testing8internal16TypedExpectationIFviEE7MatchesERKSt5tupleIJiEE
FNDA:8,_ZNK7testing8internal16TypedExpectationIFvvEE7MatchesERKSt5tupleIJEE
FNDA:2,_ZNK7testing8internal16TypedExpectationIFivEE21ShouldHandleArgumentsERKSt5tupleIJEE
FNDA:2,_ZNK7testing8internal16TypedExpectationIFvR7AccountS3_iEE21ShouldHandleArgumentsERKSt5tupleIJS3_S3_iEE
FNDA:5,_ZNK7testing8internal16TypedExpectationIFviEE21ShouldHandleArgumentsERKSt5tupleIJiEE
FNDA:8,_ZNK7testing8internal16TypedExpectationIFvvEE21ShouldHandleArgumentsERKSt5tupleIJEE
FNDA:0,_ZNK7testing8internal16TypedExpectationIFivEE20ExplainMatchResultToERKSt5tupleIJEEPSo
FNDA:0,_ZNK7testing8internal16TypedExpectationIFvR7AccountS3_iEE20ExplainMatchResultToERKSt5tupleIJS3_S3_iEEPSo
FNDA:0,_ZNK7testing8internal16TypedExpectationIFviEE20ExplainMatchResultToERKSt5tupleIJiEEPSo
FNDA:0,_ZNK7testing8internal16TypedExpectationIFvvEE20ExplainMatchResultToERKSt5tupleIJEEPSo
FNDA:2,_ZNK7testing8internal16TypedExpectationIFivEE16GetCurrentActionEPKNS0_14FunctionMockerIS2_EERKSt5tupleIJEE
FNDA:2,_ZNK7testing8internal16TypedExpectationIFvR7AccountS3_iEE16GetCurrentActionEPKNS0_14FunctionMockerIS4_EERKSt5tupleIJS3_S3_iEE
FNDA:4,_ZNK7testing8internal16TypedExpectationIFviEE16GetCurrentActionEPKNS0_14FunctionMockerIS2_EERKSt5tupleIJiEE
FNDA:8,_ZNK7testing8internal16TypedExpectationIFvvEE16GetCurrentActionEPKNS0_14FunctionMockerIS2_EERKSt5tupleIJEE
FNDA:2,_ZN7testing8internal16TypedExpectationIFivEE21GetActionForArgumentsEPKNS0_14FunctionMockerIS2_EERKSt5tupleIJEEPSoSC_
FNDA:2,_ZN7testing8internal16TypedExpectationIFvR7AccountS3_iEE21GetActionForArgumentsEPKNS0_14FunctionMockerIS4_EERKSt5tupleIJS3_S3_iEEPSoSE_
FNDA:4,_ZN7testing8internal16TypedExpectationIFviEE21GetActionForArgumentsEPKNS0_14FunctionMockerIS2_EERKSt5tupleIJiEEPSoSC_
FNDA:8,_ZN7testing8internal16TypedExpectationIFvvEE21GetActionForArgumentsEPKNS0_14FunctionMockerIS2_EERKSt5tupleIJEEPSoSC_
FNDA:2,_ZN7testing8internal8MockSpecIFivEEC2EPNS0_14FunctionMockerIS2_EERKSt5tupleIJEE
FNDA:3,_ZN7testing8internal8MockSpecIFvR7AccountS3_iEEC2EPNS0_14FunctionMockerIS4_EERKSt5tupleIJNS_7MatcherIS3_EESB_NSA_IiEEEE
FNDA:4,_ZN7testing8internal8MockSpecIFviEEC2EPNS0_14FunctionMockerIS2_EERKSt5tupleIJNS_7MatcherIiEEEE
FNDA:8,_ZN7testing8internal8MockSpecIFvvEEC2EPNS0_14FunctionMockerIS2_EERKSt5tupleIJEE
FNDA:2,_ZN7testing8internal8MockSpecIFivEE18InternalExpectedAtEPKciS5_S5_
FNDA:3,_ZN7testing8internal8MockSpecIFvR7AccountS3_iEE18InternalExpectedAtEPKciS7_S7_
FNDA:4,_ZN7testing8internal8MockSpecIFviEE18InternalExpectedAtEPKciS5_S5_
FNDA:8,_ZN7testing8internal8MockSpecIFvvEE18InternalExpectedAtEPKciS5_S5_
FNDA:2,_ZN7testing8internal8MockSpecIFivEEclERKNS0_15WithoutMatchersEPv
FNDA:3,_ZN7testing8internal8MockSpecIFvR7AccountS3_iEEclERKNS0_15WithoutMatchersEPv
FNDA:4,_ZN7testing8internal8MockSpecIFviEEclERKNS0_15WithoutMatchersEPv
FNDA:8,_ZN7testing8internal8MockSpecIFvvEEclERKNS0_15WithoutMatchersEPv
FNDA:0,_ZN7testing8internal19PrintAsActionResultIiEEvRKT_RSo
FNDA:0,_ZN7testing8internal25UntypedFunctionMockerBase31UninterestingCallCleanupHandlerD2Ev
FNDA:0,_ZN7testing8internal25UntypedFunctionMockerBase21FailureCleanupHandlerD2Ev
FNDA:16,_ZN7testing8internal14FunctionMockerIFivEEC2Ev
FNDA:8,_ZN7testing8internal14FunctionMockerIFvR7AccountS3_iEEC2Ev
FNDA:16,_ZN7testing8internal14FunctionMockerIFviEEC2Ev
FNDA:32,_ZN7testing8internal14FunctionMockerIFvvEEC2Ev
FNDA:0,_ZN7testing8internal14FunctionMockerIFivEED0Ev
FNDA:16,_ZN7testing8internal14FunctionMockerIFivEED2Ev
FNDA:0,_ZN7testing8internal14FunctionMockerIFvR7AccountS3_iEED0Ev
FNDA:8,_ZN7testing8internal14FunctionMockerIFvR7AccountS3_iEED2Ev
FNDA:0,_ZN7testing8internal14FunctionMockerIFviEED0Ev
FNDA:16,_ZN7testing8internal14FunctionMockerIFviEED2Ev
FNDA:0,_ZN7testing8internal14FunctionMockerIFvvEED0Ev
FNDA:32,_ZN7testing8internal14FunctionMockerIFvvEED2Ev
FNDA:0,_ZNK7testing8internal14FunctionMockerIFivEE14FindOnCallSpecERKSt5tupleIJEE
FNDA:2,_ZNK7testing8internal14FunctionMockerIFvR7AccountS3_iEE14FindOnCallSpecERKSt5tupleIJS3_S3_iEE
FNDA:4,_ZNK7testing8internal14FunctionMockerIFviEE14FindOnCallSpecERKSt5tupleIJiEE
FNDA:8,_ZNK7testing8internal14FunctionMockerIFvvEE14FindOnCallSpecERKSt5tupleIJEE
FNDA:0,_ZNK7testing8internal14FunctionMockerIFivEE20PerformDefaultActionEOSt5tupleIJEERKNSt7__cxx1112basic_stringIcSt11char_traitsIcESaIcEEE
FNDA:2,_ZNK7testing8internal14FunctionMockerIFvR7AccountS3_iEE20PerformDefaultActionEOSt5tupleIJS3_S3_iEERKNSt7__cxx1112basic_stringIcSt11char_traitsIcESaIcEEE
FNDA:4,_ZNK7testing8internal14FunctionMockerIFviEE20PerformDefaultActionEOSt5tupleIJiEERKNSt7__cxx1112basic_stringIcSt11char_traitsIcESaIcEEE
FNDA:8,_ZNK7testing8internal14FunctionMockerIFvvEE20PerformDefaultActionEOSt5tupleIJEERKNSt7__cxx1112basic_stringIcSt11char_traitsIcESaIcEEE
FNDA:16,_ZN7testing8internal14FunctionMockerIFivEE25ClearDefaultActionsLockedEv
FNDA:8,_ZN7testing8internal14FunctionMockerIFvR7AccountS3_iEE25ClearDefaultActionsLockedEv
FNDA:16,_ZN7testing8internal14FunctionMockerIFviEE25ClearDefaultActionsLockedEv
FNDA:32,_ZN7testing8internal14FunctionMockerIFvvEE25ClearDefaultActionsLockedEv
FNDA:2,_ZN7testing8internal14FunctionMockerIFivEE6InvokeEv
FNDA:2,_ZN7testing8internal14FunctionMockerIFvR7AccountS3_iEE6InvokeES3_S3_i
FNDA:4,_ZN7testing8internal14FunctionMockerIFviEE6InvokeEi
FNDA:8,_ZN7testing8internal14FunctionMockerIFvvEE6InvokeEv
FNDA:2,_ZN7testing8internal14FunctionMockerIFivEE4WithEv
FNDA:3,_ZN7testing8internal14FunctionMockerIFvR7AccountS3_iEE4WithENS_7MatcherIS3_EES7_NS6_IiEE
FNDA:4,_ZN7testing8internal14FunctionMockerIFviEE4WithENS_7MatcherIiEE
FNDA:8,_ZN7testing8internal14FunctionMockerIFvvEE4WithEv
FNDA:2,_ZN7testing8internal14FunctionMockerIFivEE17AddNewExpectationEPKciRKNSt7__cxx1112basic_stringIcSt11char_traitsIcESaIcEEERKSt5tupleIJEE
FNDA:3,_ZN7testing8internal14FunctionMockerIFvR7AccountS3_iEE17AddNewExpectationEPKciRKNSt7__cxx1112basic_stringIcSt11char_traitsIcESaIcEEERKSt5tupleIJNS_7MatcherIS3_EESI_NSH_IiEEEE
FNDA:4,_ZN7testing8internal14FunctionMockerIFviEE17AddNewExpectationEPKciRKNSt7__cxx1112basic_stringIcSt11char_traitsIcESaIcEEERKSt5tupleIJNS_7MatcherIiEEEE
FNDA:8,_ZN7testing8internal14FunctionMockerIFvvEE17AddNewExpectationEPKciRKNSt7__cxx1112basic_stringIcSt11char_traitsIcESaIcEEERKSt5tupleIJEE
FNDA:0,_ZNK7testing8internal14FunctionMockerIFivEE23DescribeDefaultActionToERKSt5tupleIJEEPSo
FNDA:0,_ZNK7testing8internal14FunctionMockerIFvR7AccountS3_iEE23DescribeDefaultActionToERKSt5tupleIJS3_S3_iEEPSo
FNDA:0,_ZNK7testing8internal14FunctionMockerIFviEE23DescribeDefaultActionToERKSt5tupleIJiEEPSo
FNDA:0,_ZNK7testing8internal14FunctionMockerIFvvEE23DescribeDefaultActionToERKSt5tupleIJEEPSo
FNDA:0,_ZNK7testing8internal14FunctionMockerIFivEE32UntypedDescribeUninterestingCallEPKvPSo
FNDA:0,_ZNK7testing8internal14FunctionMockerIFvR7AccountS3_iEE32UntypedDescribeUninterestingCallEPKvPSo
FNDA:0,_ZNK7testing8internal14FunctionMockerIFviEE32UntypedDescribeUninterestingCallEPKvPSo
FNDA:0,_ZNK7testing8internal14FunctionMockerIFvvEE32UntypedDescribeUninterestingCallEPKvPSo
FNDA:2,_ZN7testing8internal14FunctionMockerIFivEE30UntypedFindMatchingExpectationEPKvPS5_PbPSoS8_
FNDA:2,_ZN7testing8internal14FunctionMockerIFvR7AccountS3_iEE30UntypedFindMatchingExpectationEPKvPS7_PbPSoSA_
FNDA:4,_ZN7testing8internal14FunctionMockerIFviEE30UntypedFindMatchingExpectationEPKvPS5_PbPSoS8_
FNDA:8,_ZN7testing8internal14FunctionMockerIFvvEE30UntypedFindMatchingExpectationEPKvPS5_PbPSoS8_
FNDA:0,_ZNK7testing8internal14FunctionMockerIFivEE16UntypedPrintArgsEPKvPSo
FNDA:0,_ZNK7testing8internal14FunctionMockerIFvR7AccountS3_iEE16UntypedPrintArgsEPKvPSo
FNDA:0,_ZNK7testing8internal14FunctionMockerIFviEE16UntypedPrintArgsEPKvPSo
FNDA:0,_ZNK7testing8internal14FunctionMockerIFvvEE16UntypedPrintArgsEPKvPSo
FNDA:2,_ZNK7testing8internal14FunctionMockerIFivEE29FindMatchingExpectationLockedERKSt5tupleIJEE
FNDA:2,_ZNK7testing8internal14FunctionMockerIFvR7AccountS3_iEE29FindMatchingExpectationLockedERKSt5tupleIJS3_S3_iEE
FNDA:4,_ZNK7testing8internal14FunctionMockerIFviEE29FindMatchingExpectationLockedERKSt5tupleIJiEE
FNDA:8,_ZNK7testing8internal14FunctionMockerIFvvEE29FindMatchingExpectationLockedERKSt5tupleIJEE
FNDA:0,_ZNK7testing8internal14FunctionMockerIFivEE33FormatUnexpectedCallMessageLockedERKSt5tupleIJEEPSoS8_
FNDA:0,_ZNK7testing8internal14FunctionMockerIFvR7AccountS3_iEE33FormatUnexpectedCallMessageLockedERKSt5tupleIJS3_S3_iEEPSoSA_
FNDA:0,_ZNK7testing8internal14FunctionMockerIFviEE33FormatUnexpectedCallMessageLockedERKSt5tupleIJiEEPSoS8_
FNDA:0,_ZNK7testing8internal14FunctionMockerIFvvEE33FormatUnexpectedCallMessageLockedERKSt5tupleIJEEPSoS8_
FNDA:0,_ZNK7testing8internal14FunctionMockerIFivEE28PrintTriedExpectationsLockedERKSt5tupleIJEEPSo
FNDA:0,_ZNK7testing8internal14FunctionMockerIFvR7AccountS3_iEE28PrintTriedExpectationsLockedERKSt5tupleIJS3_S3_iEEPSo
FNDA:0,_ZNK7testing8internal14FunctionMockerIFviEE28PrintTriedExpectationsLockedERKSt5tupleIJiEEPSo
FNDA:0,_ZNK7testing8internal14FunctionMockerIFvvEE28PrintTriedExpectationsLockedERKSt5tupleIJEEPSo
FNDA:2,_ZNK7testing8internal14FunctionMockerIFivEE13PerformActionEPKvOSt5tupleIJEERKNSt7__cxx1112basic_stringIcSt11char_traitsIcESaIcEEE
FNDA:2,_ZNK7testing8internal14FunctionMockerIFvR7AccountS3_iEE13PerformActionEPKvOSt5tupleIJS3_S3_iEERKNSt7__cxx1112basic_stringIcSt11char_traitsIcESaIcEEE
FNDA:4,_ZNK7testing8internal14FunctionMockerIFviEE13PerformActionEPKvOSt5tupleIJiEERKNSt7__cxx1112basic_stringIcSt11char_traitsIcESaIcEEE
FNDA:8,_ZNK7testing8internal14FunctionMockerIFvvEE13PerformActionEPKvOSt5tupleIJEERKNSt7__cxx1112basic_stringIcSt11char_traitsIcESaIcEEE
FNDA:0,_ZN7testing8internal14FunctionMockerIFivEE27PerformActionAndPrintResultIiLi0EEEiPKvOSt5tupleIJEERKNSt7__cxx1112basic_stringIcSt11char_traitsIcESaIcEEERSo
FNDA:0,_ZN7testing8internal14FunctionMockerIFvR7AccountS3_iEE27PerformActionAndPrintResultIvLi0EEEvPKvOSt5tupleIJS3_S3_iEERKNSt7__cxx1112basic_stringIcSt11char_traitsIcESaIcEEERSo
FNDA:0,_ZN7testing8internal14FunctionMockerIFviEE27PerformActionAndPrintResultIvLi0EEEvPKvOSt5tupleIJiEERKNSt7__cxx1112basic_stringIcSt11char_traitsIcESaIcEEERSo
FNDA:0,_ZN7testing8internal14FunctionMockerIFvvEE27PerformActionAndPrintResultIvLi0EEEvPKvOSt5tupleIJEERKNSt7__cxx1112basic_stringIcSt11char_traitsIcESaIcEEERSo
FNDA:2,_ZN7testing8internal14FunctionMockerIFivEE10InvokeWithEOSt5tupleIJEE
FNDA:2,_ZN7testing8internal14FunctionMockerIFvR7AccountS3_iEE10InvokeWithEOSt5tupleIJS3_S3_iEE
FNDA:4,_ZN7testing8internal14FunctionMockerIFviEE10InvokeWithEOSt5tupleIJiEE
FNDA:8,_ZN7testing8internal14FunctionMockerIFvvEE10InvokeWithEOSt5tupleIJEE
FNDA:0,_ZNK7testing8internal21UntypedOnCallSpecBase4fileEv
FNDA:0,_ZNK7testing8internal21UntypedOnCallSpecBase4lineEv
FNDA:0,_ZNK7testing8internal21UntypedOnCallSpecBase18AssertSpecPropertyEbRKNSt7__cxx1112basic_stringIcSt11char_traitsIcESaIcEEE
FNDA:0,_ZNK7testing8internal10OnCallSpecIFivEE7MatchesERKSt5tupleIJEE
FNDA:0,_ZNK7testing8internal10OnCallSpecIFvR7AccountS3_iEE7MatchesERKSt5tupleIJS3_S3_iEE
FNDA:0,_ZNK7testing8internal10OnCallSpecIFviEE7MatchesERKSt5tupleIJiEE
FNDA:0,_ZNK7testing8internal10OnCallSpecIFvvEE7MatchesERKSt5tupleIJEE
FNDA:0,_ZNK7testing8internal10OnCallSpecIFivEE9GetActionEv
FNDA:0,_ZNK7testing8internal10OnCallSpecIFvR7AccountS3_iEE9GetActionEv
FNDA:0,_ZNK7testing8internal10OnCallSpecIFviEE9GetActionEv
FNDA:0,_ZNK7testing8internal10OnCallSpecIFvvEE9GetActionEv
FNDA:113,_ZNK7testing11Expectation16expectation_baseEv
FNDA:17,_ZN7testing14ExpectationSetC2Ev
FNDA:103,_ZNK7testing14ExpectationSet5beginEv
FNDA:185,_ZNK7testing14ExpectationSet3endEv
FNDA:0,_ZNK7testing8internal15ExpectationBase4fileEv
FNDA:0,_ZNK7testing8internal15ExpectationBase4lineEv
FNDA:16,_ZNK7testing8internal15ExpectationBase11source_textEv
FNDA:125,_ZNK7testing8internal15ExpectationBase11cardinalityEv
FNDA:0,_ZNK7testing8internal15ExpectationBase18DescribeLocationToEPSo
FNDA:3,_ZNK7testing8internal15ExpectationBase18ExpectSpecPropertyEbRKNSt7__cxx1112basic_stringIcSt11char_traitsIcESaIcEEE
FNDA:2,_ZNK7testing8internal15ExpectationBase21cardinality_specifiedEv
FNDA:2,_ZN7testing8internal15ExpectationBase15set_cardinalityERKNS_11CardinalityE
FNDA:59,_ZNK7testing8internal15ExpectationBase10is_retiredEv
FNDA:14,_ZN7testing8internal15ExpectationBase6RetireEv
FNDA:16,_ZNK7testing8internal15ExpectationBase14GetDescriptionB5cxx11Ev
FNDA:32,_ZNK7testing8internal15ExpectationBase11IsSaturatedEv
FNDA:16,_ZNK7testing8internal15ExpectationBase10call_countEv
FNDA:16,_ZN7testing8internal15ExpectationBase18IncrementCallCountEv
FNDA:2,_ZN7testing8internal16TypedExpectationIFivEEC2EPNS0_14FunctionMockerIS2_EEPKciRKNSt7__cxx1112basic_stringIcSt11char_traitsIcESaIcEEERKSt5tupleIJEE
FNDA:3,_ZN7testing8internal16TypedExpectationIFvR7AccountS3_iEEC2EPNS0_14FunctionMockerIS4_EEPKciRKNSt7__cxx1112basic_stringIcSt11char_traitsIcESaIcEEERKSt5tupleIJNS_7MatcherIS3_EESL_NSK_IiEEEE
FNDA:4,_ZN7testing8internal16TypedExpectationIFviEEC2EPNS0_14FunctionMockerIS2_EEPKciRKNSt7__cxx1112basic_stringIcSt11char_traitsIcESaIcEEERKSt5tupleIJNS_7MatcherIiEEEE
FNDA:8,_ZN7testing8internal16TypedExpectationIFvvEEC2EPNS0_14FunctionMockerIS2_EEPKciRKNSt7__cxx1112basic_stringIcSt11char_traitsIcESaIcEEERKSt5tupleIJEE
FNDA:2,_ZN7testing8internal16TypedExpectationIFivEED0Ev
FNDA:2,_ZN7testing8internal16TypedExpectationIFivEED2Ev
FNDA:3,_ZN7testing8internal16TypedExpectationIFvR7AccountS3_iEED0Ev
FNDA:3,_ZN7testing8internal16TypedExpectationIFvR7AccountS3_iEED2Ev
FNDA:4,_ZN7testing8internal16TypedExpectationIFviEED0Ev
FNDA:4,_ZN7testing8internal16TypedExpectationIFviEED2Ev
FNDA:8,_ZN7testing8internal16TypedExpectationIFvvEED0Ev
FNDA:8,_ZN7testing8internal16TypedExpectationIFvvEED2Ev
FNDA:1,_ZN7testing8internal16TypedExpectationIFvR7AccountS3_iEE5TimesERKNS_11CardinalityE
FNDA:1,_ZN7testing8internal16TypedExpectationIFvR7AccountS3_iEE5TimesEi
FNF:169
FNH:109
DA:246,0
DA:247,0
DA:260,0
DA:262,0
DA:263,0
DA:323,0
DA:324,0
DA:328,0
DA:329,0
DA:332,0
DA:539,113
DA:540,113
DA:569,17
DA:605,103
DA:606,185
DA:693,0
DA:694,0
DA:695,16
DA:697,125
DA:700,0
DA:701,0
DA:702,0
DA:748,3
DA:750,3
DA:751,3
DA:759,2
DA:762,2
DA:763,2
DA:764,2
DA:774,59
DA:775,59
DA:776,59
DA:780,14
DA:781,14
DA:782,14
DA:783,14
DA:787,16
DA:796,32
DA:797,32
DA:798,32
DA:817,16
DA:818,16
DA:819,16
DA:823,16
DA:824,16
DA:825,16
DA:826,16
DA:887,17
DA:891,17
DA:892,7
DA:896,17
DA:897,24
DA:899,34
DA:902,17
DA:903,17
DA:904,19
DA:905,2
DA:907,51
DA:935,1
DA:936,1
DA:937,1
DA:941,1
DA:1003,2
DA:1007,4
DA:1008,2
DA:1009,4
DA:1010,2
DA:1018,2
DA:1019,4
DA:1022,2
DA:1024,2
DA:1026,2
DA:1027,2
DA:1029,2
DA:1081,14
DA:1085,0
DA:1086,0
DA:1087,0
DA:1088,0
DA:1089,0
DA:1091,0
DA:1102,2
DA:1103,2
DA:1109,0
DA:1116,16
DA:1118,16
DA:1119,16
DA:1124,17
DA:1126,17
DA:1132,17
DA:1133,17
DA:1138,0
DA:1140,0
DA:1142,0
DA:1144,0
DA:1145,0
DA:1146,0
DA:1147,0
DA:1149,0
DA:1150,0
DA:1151,0
DA:1152,0
DA:1153,0
DA:1155,0
DA:1156,0
DA:1158,0
DA:1161,0
DA:1162,0
DA:1163,0
DA:1164,0
DA:1165,0
DA:1166,0
DA:1167,0
DA:1168,0
DA:1170,0
DA:1171,0
DA:1176,0
DA:1178,0
DA:1181,16
DA:1184,16
DA:1185,16
DA:1186,16
DA:1190,16
DA:1191,16
DA:1195,0
DA:1196,0
DA:1198,0
DA:1200,0
DA:1201,0
DA:1202,0
DA:1203,0
DA:1206,18
DA:1207,2
DA:1208,16
DA:1218,16
DA:1223,16
DA:1224,16
DA:1225,16
DA:1227,0
DA:1228,0
DA:1229,0
DA:1230,0
DA:1232,0
DA:1233,0
DA:1234,0
DA:1236,0
DA:1239,16
DA:1240,16
DA:1242,16
DA:1243,0
DA:1247,16
DA:1248,16
DA:1249,0
DA:1251,16
DA:1252,16
DA:1290,17
DA:1292,17
DA:1306,17
DA:1309,17
DA:1311,17
DA:1312,34
DA:1313,34
DA:1314,17
DA:1319,17
DA:1320,17
DA:1381,0
DA:1382,0
DA:1384,0
DA:1385,0
DA:1406,0
DA:1407,0
DA:1408,0
DA:1419,0
DA:1420,0
DA:1422,0
DA:1424,0
DA:1425,0
DA:1427,0
DA:1428,0
DA:1432,0
DA:1434,0
DA:1449,72
DA:1469,72
DA:1470,72
DA:1471,72
DA:1472,72
DA:1473,72
DA:1474,144
DA:1479,14
DA:1480,14
DA:1482,14
DA:1483,0
DA:1484,0
DA:1487,14
DA:1497,14
DA:1499,14
DA:1500,14
DA:1501,0
DA:1503,14
DA:1508,14
DA:1509,0
DA:1514,14
DA:1515,14
DA:1519,72
DA:1521,72
DA:1530,72
DA:1531,72
DA:1533,72
DA:1534,72
DA:1535,72
DA:1536,0
DA:1541,72
DA:1542,72
DA:1547,16
DA:1548,16
DA:1551,17
DA:1552,17
DA:1570,17
DA:1574,17
DA:1575,0
DA:1576,17
DA:1577,17
DA:1580,17
DA:1583,17
DA:1584,17
DA:1585,16
DA:1588,17
DA:1589,17
DA:1600,0
DA:1602,0
DA:1604,0
DA:1605,0
DA:1609,0
DA:1611,0
DA:1616,0
DA:1619,0
DA:1621,0
DA:1622,0
DA:1623,0
DA:1624,0
DA:1625,0
DA:1643,16
DA:1647,16
DA:1649,16
DA:1650,16
DA:1651,16
DA:1652,0
DA:1653,0
DA:1659,16
DA:1660,16
DA:1661,16
DA:1662,14
DA:1663,16
DA:1664,16
DA:1665,16
DA:1668,0
DA:1670,0
DA:1672,0
DA:1673,0
DA:1677,16
DA:1679,16
DA:1682,16
DA:1684,17
DA:1686,17
DA:1687,17
DA:1688,16
DA:1691,0
DA:1695,0
DA:1699,0
DA:1700,0
DA:1701,0
DA:1702,0
DA:1703,0
DA:1707,0
DA:1710,0
DA:1711,0
DA:1712,0
DA:1715,0
DA:1716,0
DA:1718,0
DA:1719,0
DA:1720,0
DA:1721,0
DA:1722,0
DA:1724,0
DA:1725,0
DA:1726,0
DA:1728,0
DA:1733,16
DA:1735,16
DA:1736,14
DA:1741,2
DA:1742,2
DA:1743,2
DA:1758,0
DA:1762,0
DA:1764,0
DA:1765,0
DA:1773,0
DA:1777,0
DA:1789,16
DA:1793,16
DA:1802,0
DA:1807,0
DA:1810,0
DA:1814,0
DA:1820,0
DA:1822,0
DA:1823,0
DA:1827,0
DA:1828,0
DA:1841,0
DA:1845,0
DA:1846,0
DA:1848,16
DA:1849,16
DA:1850,16
DA:1851,16
DA:1852,16
DA:1858,16
DA:1860,16
DA:1866,16
DA:1867,16
DA:1868,16
DA:1870,32
DA:1873,0
DA:1874,0
DA:1878,0
DA:1879,0
DA:1892,0
DA:1896,0
DA:1897,0
DA:1898,16
LF:333
LH:179
end_of_record
TN:
SF:/home/ilyasov_ilya/ferdosiakrymskaa-svg/workspace/projects/lab05/lab05/third-party/gtest/googlemock/include/gmock/internal/gmock-internal-utils.h
FN:242,248,_ZN7testing8internal6AssertEbPKciRKNSt7__cxx1112basic_stringIcSt11char_traitsIcESaIcEEE
FN:255,261,_ZN7testing8internal6ExpectEbPKciRKNSt7__cxx1112basic_stringIcSt11char_traitsIcESaIcEEE
FN:423,427,_ZN7testing8internal9ApplyImplIRKSt8functionIFivEESt5tupleIJEEJEEEDTclcl7forwardIT_Efp_Espcl3getIXT1_EEcl7forwardIT0_Efp0_EEEEOS9_OSA_NS0_13IndexSequenceIJXspT1_EEEE
FN:423,427,_ZN7testing8internal9ApplyImplIRKSt8functionIFvR7AccountS4_iEESt5tupleIJS4_S4_iEEJLm0ELm1ELm2EEEEDTclcl7forwardIT_Efp_Espcl3getIXT1_EEcl7forwardIT0_Efp0_EEEEOSB_OSC_NS0_13IndexSequenceIJXspT1_EEEE
FN:423,427,_ZN7testing8internal9ApplyImplIRKSt8functionIFviEESt5tupleIJiEEJLm0EEEEDTclcl7forwardIT_Efp_Espcl3getIXT1_EEcl7forwardIT0_Efp0_EEEEOS9_OSA_NS0_13IndexSequenceIJXspT1_EEEE
FN:423,427,_ZN7testing8internal9ApplyImplIRKSt8functionIFvvEESt5tupleIJEEJEEEDTclcl7forwardIT_Efp_Espcl3getIXT1_EEcl7forwardIT0_Efp0_EEEEOS9_OSA_NS0_13IndexSequenceIJXspT1_EEEE
FN:431,438,_ZN7testing8internal5ApplyIRKSt8functionIFivEESt5tupleIJEEEEDTcl9ApplyImplcl7forwardIT_Efp_Ecl7forwardIT0_Efp0_EcvNS0_21MakeIndexSequenceImplIXsrSt10tuple_sizeINSt16remove_referenceISA_E4typeEE5valueEE4typeE_EEEOS9_OSA_
FN:431,438,_ZN7testing8internal5ApplyIRKSt8functionIFvR7AccountS4_iEESt5tupleIJS4_S4_iEEEEDTcl9ApplyImplcl7forwardIT_Efp_Ecl7forwardIT0_Efp0_EcvNS0_21MakeIndexSequenceImplIXsrSt10tuple_sizeINSt16remove_referenceISC_E4typeEE5valueEE4typeE_EEEOSB_OSC_
FN:431,438,_ZN7testing8internal5ApplyIRKSt8functionIFviEESt5tupleIJiEEEEDTcl9ApplyImplcl7forwardIT_Efp_Ecl7forwardIT0_Efp0_EcvNS0_21MakeIndexSequenceImplIXsrSt10tuple_sizeINSt16remove_referenceISA_E4typeEE5valueEE4typeE_EEEOS9_OSA_
FN:431,438,_ZN7testing8internal5ApplyIRKSt8functionIFvvEESt5tupleIJEEEEDTcl9ApplyImplcl7forwardIT_Efp_Ecl7forwardIT0_Efp0_EcvNS0_21MakeIndexSequenceImplIXsrSt10tuple_sizeINSt16remove_referenceISA_E4typeEE5valueEE4typeE_EEEOS9_OSA_
FNDA:33,_ZN7testing8internal6AssertEbPKciRKNSt7__cxx1112basic_stringIcSt11char_traitsIcESaIcEEE
FNDA:3,_ZN7testing8internal6ExpectEbPKciRKNSt7__cxx1112basic_stringIcSt11char_traitsIcESaIcEEE
FNDA:2,_ZN7testing8internal9ApplyImplIRKSt8functionIFivEESt5tupleIJEEJEEEDTclcl7forwardIT_Efp_Espcl3getIXT1_EEcl7forwardIT0_Efp0_EEEEOS9_OSA_NS0_13IndexSequenceIJXspT1_EEEE
FNDA:0,_ZN7testing8internal9ApplyImplIRKSt8functionIFvR7AccountS4_iEESt5tupleIJS4_S4_iEEJLm0ELm1ELm2EEEEDTclcl7forwardIT_Efp_Espcl3getIXT1_EEcl7forwardIT0_Efp0_EEEEOSB_OSC_NS0_13IndexSequenceIJXspT1_EEEE
FNDA:0,_ZN7testing8internal9ApplyImplIRKSt8functionIFviEESt5tupleIJiEEJLm0EEEEDTclcl7forwardIT_Efp_Espcl3getIXT1_EEcl7forwardIT0_Efp0_EEEEOS9_OSA_NS0_13IndexSequenceIJXspT1_EEEE
FNDA:0,_ZN7testing8internal9ApplyImplIRKSt8functionIFvvEESt5tupleIJEEJEEEDTclcl7forwardIT_Efp_Espcl3getIXT1_EEcl7forwardIT0_Efp0_EEEEOS9_OSA_NS0_13IndexSequenceIJXspT1_EEEE
FNDA:2,_ZN7testing8internal5ApplyIRKSt8functionIFivEESt5tupleIJEEEEDTcl9ApplyImplcl7forwardIT_Efp_Ecl7forwardIT0_Efp0_EcvNS0_21MakeIndexSequenceImplIXsrSt10tuple_sizeINSt16remove_referenceISA_E4typeEE5valueEE4typeE_EEEOS9_OSA_
FNDA:0,_ZN7testing8internal5ApplyIRKSt8functionIFvR7AccountS4_iEESt5tupleIJS4_S4_iEEEEDTcl9ApplyImplcl7forwardIT_Efp_Ecl7forwardIT0_Efp0_EcvNS0_21MakeIndexSequenceImplIXsrSt10tuple_sizeINSt16remove_referenceISC_E4typeEE5valueEE4typeE_EEEOSB_OSC_
FNDA:0,_ZN7testing8internal5ApplyIRKSt8functionIFviEESt5tupleIJiEEEEDTcl9ApplyImplcl7forwardIT_Efp_Ecl7forwardIT0_Efp0_EcvNS0_21MakeIndexSequenceImplIXsrSt10tuple_sizeINSt16remove_referenceISA_E4typeEE5valueEE4typeE_EEEOS9_OSA_
FNDA:0,_ZN7testing8internal5ApplyIRKSt8functionIFvvEESt5tupleIJEEEEDTcl9ApplyImplcl7forwardIT_Efp_Ecl7forwardIT0_Efp0_EcvNS0_21MakeIndexSequenceImplIXsrSt10tuple_sizeINSt16remove_referenceISA_E4typeEE5valueEE4typeE_EEEOS9_OSA_
FNF:10
FNH:4
DA:242,33
DA:244,33
DA:245,0
DA:248,33
DA:255,3
DA:257,3
DA:258,0
DA:261,3
DA:423,2
DA:426,2
DA:431,2
DA:435,2
DA:437,2
LF:13
LH:11
end_of_record
TN:
SF:/home/ilyasov_ilya/ferdosiakrymskaa-svg/workspace/projects/lab05/lab05/third-party/gtest/googletest/include/gtest/gtest-assertion-result.h
FN:155,161,_ZN7testing15AssertionResultC2IbEERKT_PNSt9enable_ifIXntsrSt14is_convertibleIS2_S0_E5valueEvE4typeE
FN:174,174,_ZNK7testing15AssertionResultcvbEv
FN:183,185,_ZNK7testing15AssertionResult7messageEv
FN:187,187,_ZNK7testing15AssertionResult15failure_messageEv
FNDA:12,_ZN7testing15AssertionResultC2IbEERKT_PNSt9enable_ifIXntsrSt14is_convertibleIS2_S0_E5valueEvE4typeE
FNDA:12,_ZNK7testing15AssertionResultcvbEv
FNDA:0,_ZNK7testing15AssertionResult7messageEv
FNDA:0,_ZNK7testing15AssertionResult15failure_messageEv
FNF:4
FNH:2
DA:155,12
DA:161,12
DA:174,12
DA:183,0
DA:184,0
DA:187,0
LF:6
LH:3
end_of_record
TN:
SF:/home/ilyasov_ilya/ferdosiakrymskaa-svg/workspace/projects/lab05/lab05/third-party/gtest/googletest/include/gtest/gtest-matchers.h
FN:110,110,_ZN7testing19MatchResultListenerD0Ev
FN:110,110,_ZN7testing19MatchResultListenerD2Ev
FN:116,116,_ZN7testing25MatcherDescriberInterfaceD0Ev
FN:116,116,_ZN7testing25MatcherDescriberInterfaceD2Ev
FN:131,135,_ZNK7testing25MatcherDescriberInterface18DescribeNegationToEPSo
FN:185,185,_ZN7testing8internal24DummyMatchResultListenerC2Ev
FN:208,208,_ZN7testing8internal17SharedPayloadBase3RefEv
FN:209,209,_ZN7testing8internal17SharedPayloadBase5UnrefEv
FN:232,235,_ZNK7testing8internal11MatcherBaseIR7AccountE15MatchAndExplainES3_PNS_19MatchResultListenerE
FN:232,235,_ZNK7testing8internal11MatcherBaseIRKSt5tupleIJEEE15MatchAndExplainES5_PNS_19MatchResultListenerE
FN:232,235,_ZNK7testing8internal11MatcherBaseIRKSt5tupleIJR7AccountS4_iEEE15MatchAndExplainES7_PNS_19MatchResultListenerE
FN:232,235,_ZNK7testing8internal11MatcherBaseIRKSt5tupleIJiEEE15MatchAndExplainES5_PNS_19MatchResultListenerE
FN:232,235,_ZNK7testing8internal11MatcherBaseIiE15MatchAndExplainERKiPNS_19MatchResultListenerE
FN:238,241,_ZNK7testing8internal11MatcherBaseIR7AccountE7MatchesES3_
FN:238,241,_ZNK7testing8internal11MatcherBaseIRKSt5tupleIJEEE7MatchesES5_
FN:238,241,_ZNK7testing8internal11MatcherBaseIRKSt5tupleIJR7AccountS4_iEEE7MatchesES7_
FN:238,241,_ZNK7testing8internal11MatcherBaseIRKSt5tupleIJiEEE7MatchesES5_
FN:238,241,_ZNK7testing8internal11MatcherBaseIiE7MatchesERKi
FN:244,247,_ZNK7testing8internal11MatcherBaseIR7AccountE10DescribeToEPSo
FN:244,247,_ZNK7testing8internal11MatcherBaseIRKSt5tupleIJEEE10DescribeToEPSo
FN:244,247,_ZNK7testing8internal11MatcherBaseIRKSt5tupleIJR7AccountS4_iEEE10DescribeToEPSo
FN:244,247,_ZNK7testing8internal11MatcherBaseIRKSt5tupleIJiEEE10DescribeToEPSo
FN:244,247,_ZNK7testing8internal11MatcherBaseIiE10DescribeToEPSo
FN:250,253,_ZNK7testing8internal11MatcherBaseIR7AccountE18DescribeNegationToEPSo
FN:250,253,_ZNK7testing8internal11MatcherBaseIRKSt5tupleIJEEE18DescribeNegationToEPSo
FN:250,253,_ZNK7testing8internal11MatcherBaseIRKSt5tupleIJR7AccountS4_iEEE18DescribeNegationToEPSo
FN:250,253,_ZNK7testing8internal11MatcherBaseIRKSt5tupleIJiEEE18DescribeNegationToEPSo
FN:250,253,_ZNK7testing8internal11MatcherBaseIiE18DescribeNegationToEPSo
FN:270,270,_ZN7testing8internal11MatcherBaseIiEC2Ev
FN:281,283,_ZN7testing8internal11MatcherBaseIR7AccountEC2IRKNS0_15AnythingMatcherEvEEOT_
FN:281,283,_ZN7testing8internal11MatcherBaseIRKSt5tupleIJEEEC2IRKNS0_15AnythingMatcherEvEEOT_
FN:281,283,_ZN7testing8internal11MatcherBaseIRKSt5tupleIJR7AccountS4_iEEEC2IRKNS0_15AnythingMatcherEvEEOT_
FN:281,283,_ZN7testing8internal11MatcherBaseIRKSt5tupleIJiEEEC2IRKNS0_15AnythingMatcherEvEEOT_
FN:281,283,_ZN7testing8internal11MatcherBaseIiEC2INS0_9EqMatcherIiEEvEEOT_
FN:281,283,_ZN7testing8internal11MatcherBaseIiEC2IRKNS0_15AnythingMatcherEvEEOT_
FN:285,288,_ZN7testing8internal11MatcherBaseIR7AccountEC2ERKS4_
FN:285,288,_ZN7testing8internal11MatcherBaseIiEC2ERKS2_
FN:299,302,_ZN7testing8internal11MatcherBaseIR7AccountEC2EOS4_
FN:299,302,_ZN7testing8internal11MatcherBaseIiEC2EOS2_
FN:304,311,_ZN7testing8internal11MatcherBaseIiEaSEOS2_
FN:313,313,_ZN7testing8internal11MatcherBaseIR7AccountED0Ev
FN:313,313,_ZN7testing8internal11MatcherBaseIR7AccountED2Ev
FN:313,313,_ZN7testing8internal11MatcherBaseIRKSt5tupleIJEEED0Ev
FN:313,313,_ZN7testing8internal11MatcherBaseIRKSt5tupleIJEEED2Ev
FN:313,313,_ZN7testing8internal11MatcherBaseIRKSt5tupleIJR7AccountS4_iEEED0Ev
FN:313,313,_ZN7testing8internal11MatcherBaseIRKSt5tupleIJR7AccountS4_iEEED2Ev
FN:313,313,_ZN7testing8internal11MatcherBaseIRKSt5tupleIJiEEED0Ev
FN:313,313,_ZN7testing8internal11MatcherBaseIRKSt5tupleIJiEEED2Ev
FN:313,313,_ZN7testing8internal11MatcherBaseIiED0Ev
FN:313,313,_ZN7testing8internal11MatcherBaseIiED2Ev
FN:327,329,_ZNK7testing8internal11MatcherBaseIR7AccountE8IsSharedEv
FN:327,329,_ZNK7testing8internal11MatcherBaseIRKSt5tupleIJEEE8IsSharedEv
FN:327,329,_ZNK7testing8internal11MatcherBaseIRKSt5tupleIJR7AccountS4_iEEE8IsSharedEv
FN:327,329,_ZNK7testing8internal11MatcherBaseIRKSt5tupleIJiEEE8IsSharedEv
FN:327,329,_ZNK7testing8internal11MatcherBaseIiE8IsSharedEv
FN:333,337,_ZN7testing8internal11MatcherBaseIR7AccountE19MatchAndExplainImplINS4_11ValuePolicyINS0_15AnythingMatcherELb1EEEEEDTcldtclsrT_3Getfp_E15MatchAndExplainfp0_clptfp1_L_ZNS_19MatchResultListener6streamEvEEEERKS4_S3_PSA_
FN:333,337,_ZN7testing8internal11MatcherBaseIRKSt5tupleIJEEE19MatchAndExplainImplINS6_11ValuePolicyINS0_15AnythingMatcherELb1EEEEEDTcldtclsrT_3Getfp_E15MatchAndExplainfp0_clptfp1_L_ZNS_19MatchResultListener6streamEvEEEERKS6_S5_PSC_
FN:333,337,_ZN7testing8internal11MatcherBaseIRKSt5tupleIJR7AccountS4_iEEE19MatchAndExplainImplINS8_11ValuePolicyINS0_15AnythingMatcherELb1EEEEEDTcldtclsrT_3Getfp_E15MatchAndExplainfp0_clptfp1_L_ZNS_19MatchResultListener6streamEvEEEERKS8_S7_PSE_
FN:333,337,_ZN7testing8internal11MatcherBaseIRKSt5tupleIJiEEE19MatchAndExplainImplINS6_11ValuePolicyINS0_15AnythingMatcherELb1EEEEEDTcldtclsrT_3Getfp_E15MatchAndExplainfp0_clptfp1_L_ZNS_19MatchResultListener6streamEvEEEERKS6_S5_PSC_
FN:333,337,_ZN7testing8internal11MatcherBaseIiE19MatchAndExplainImplINS2_11ValuePolicyINS0_15AnythingMatcherELb1EEEEEDTcldtclsrT_3Getfp_E15MatchAndExplainfp0_clptfp1_L_ZNS_19MatchResultListener6streamEvEEEERKS2_RKiPS8_
FN:333,337,_ZN7testing8internal11MatcherBaseIiE19MatchAndExplainImplINS2_11ValuePolicyINS0_9EqMatcherIiEELb1EEEEEDTcldtclsrT_3Getfp_E15MatchAndExplainfp0_clptfp1_L_ZNS_19MatchResultListener6streamEvEEEERKS2_RKiPS9_
FN:347,354,_ZN7testing8internal11MatcherBaseIR7AccountE12DescribeImplINS4_11ValuePolicyINS0_15AnythingMatcherELb1EEEEEvRKS4_PSob
FN:347,354,_ZN7testing8internal11MatcherBaseIRKSt5tupleIJEEE12DescribeImplINS6_11ValuePolicyINS0_15AnythingMatcherELb1EEEEEvRKS6_PSob
FN:347,354,_ZN7testing8internal11MatcherBaseIRKSt5tupleIJR7AccountS4_iEEE12DescribeImplINS8_11ValuePolicyINS0_15AnythingMatcherELb1EEEEEvRKS8_PSob
FN:347,354,_ZN7testing8internal11MatcherBaseIRKSt5tupleIJiEEE12DescribeImplINS6_11ValuePolicyINS0_15AnythingMatcherELb1EEEEEvRKS6_PSob
FN:347,354,_ZN7testing8internal11MatcherBaseIiE12DescribeImplINS2_11ValuePolicyINS0_15AnythingMatcherELb1EEEEEvRKS2_PSob
FN:347,354,_ZN7testing8internal11MatcherBaseIiE12DescribeImplINS2_11ValuePolicyINS0_9EqMatcherIiEELb1EEEEEvRKS2_PSob
FN:357,370,_ZN7testing8internal11MatcherBaseIR7AccountE16GetDescriberImplINS4_11ValuePolicyINS0_15AnythingMatcherELb1EEEEEPKNS_25MatcherDescriberInterfaceERKS4_
FN:357,370,_ZN7testing8internal11MatcherBaseIRKSt5tupleIJEEE16GetDescriberImplINS6_11ValuePolicyINS0_15AnythingMatcherELb1EEEEEPKNS_25MatcherDescriberInterfaceERKS6_
FN:357,370,_ZN7testing8internal11MatcherBaseIRKSt5tupleIJR7AccountS4_iEEE16GetDescriberImplINS8_11ValuePolicyINS0_15AnythingMatcherELb1EEEEEPKNS_25MatcherDescriberInterfaceERKS8_
FN:357,370,_ZN7testing8internal11MatcherBaseIRKSt5tupleIJiEEE16GetDescriberImplINS6_11ValuePolicyINS0_15AnythingMatcherELb1EEEEEPKNS_25MatcherDescriberInterfaceERKS6_
FN:357,370,_ZN7testing8internal11MatcherBaseIiE16GetDescriberImplINS2_11ValuePolicyINS0_15AnythingMatcherELb1EEEEEPKNS_25MatcherDescriberInterfaceERKS2_
FN:357,370,_ZN7testing8internal11MatcherBaseIiE16GetDescriberImplINS2_11ValuePolicyINS0_9EqMatcherIiEELb1EEEEEPKNS_25MatcherDescriberInterfaceERKS2_
FN:373,378,_ZN7testing8internal11MatcherBaseIR7AccountE9GetVTableINS4_11ValuePolicyINS0_15AnythingMatcherELb1EEEEEPKNS4_6VTableEv
FN:373,378,_ZN7testing8internal11MatcherBaseIRKSt5tupleIJEEE9GetVTableINS6_11ValuePolicyINS0_15AnythingMatcherELb1EEEEEPKNS6_6VTableEv
FN:373,378,_ZN7testing8internal11MatcherBaseIRKSt5tupleIJR7AccountS4_iEEE9GetVTableINS8_11ValuePolicyINS0_15AnythingMatcherELb1EEEEEPKNS8_6VTableEv
FN:373,378,_ZN7testing8internal11MatcherBaseIRKSt5tupleIJiEEE9GetVTableINS6_11ValuePolicyINS0_15AnythingMatcherELb1EEEEEPKNS6_6VTableEv
FN:373,378,_ZN7testing8internal11MatcherBaseIiE9GetVTableINS2_11ValuePolicyINS0_15AnythingMatcherELb1EEEEEPKNS2_6VTableEv
FN:373,378,_ZN7testing8internal11MatcherBaseIiE9GetVTableINS2_11ValuePolicyINS0_9EqMatcherIiEELb1EEEEEPKNS2_6VTableEv
FN:389,393,_ZN7testing8internal11MatcherBaseIR7AccountE7DestroyEv
FN:389,393,_ZN7testing8internal11MatcherBaseIRKSt5tupleIJEEE7DestroyEv
FN:389,393,_ZN7testing8internal11MatcherBaseIRKSt5tupleIJR7AccountS4_iEEE7DestroyEv
FN:389,393,_ZN7testing8internal11MatcherBaseIRKSt5tupleIJiEEE7DestroyEv
FN:389,393,_ZN7testing8internal11MatcherBaseIiE7DestroyEv
FN:404,410,_ZN7testing8internal11MatcherBaseIR7AccountE11ValuePolicyINS0_15AnythingMatcherELb1EE3GetERKS4_
FN:404,410,_ZN7testing8internal11MatcherBaseIRKSt5tupleIJEEE11ValuePolicyINS0_15AnythingMatcherELb1EE3GetERKS6_
FN:404,410,_ZN7testing8internal11MatcherBaseIRKSt5tupleIJR7AccountS4_iEEE11ValuePolicyINS0_15AnythingMatcherELb1EE3GetERKS8_
FN:404,410,_ZN7testing8internal11MatcherBaseIRKSt5tupleIJiEEE11ValuePolicyINS0_15AnythingMatcherELb1EE3GetERKS6_
FN:404,410,_ZN7testing8internal11MatcherBaseIiE11ValuePolicyINS0_15AnythingMatcherELb1EE3GetERKS2_
FN:404,410,_ZN7testing8internal11MatcherBaseIiE11ValuePolicyINS0_9EqMatcherIiEELb1EE3GetERKS2_
FN:411,413,_ZN7testing8internal11MatcherBaseIR7AccountE11ValuePolicyINS0_15AnythingMatcherELb1EE4InitERS4_S6_
FN:411,413,_ZN7testing8internal11MatcherBaseIRKSt5tupleIJEEE11ValuePolicyINS0_15AnythingMatcherELb1EE4InitERS6_S8_
FN:411,413,_ZN7testing8internal11MatcherBaseIRKSt5tupleIJR7AccountS4_iEEE11ValuePolicyINS0_15AnythingMatcherELb1EE4InitERS8_SA_
FN:411,413,_ZN7testing8internal11MatcherBaseIRKSt5tupleIJiEEE11ValuePolicyINS0_15AnythingMatcherELb1EE4InitERS6_S8_
FN:411,413,_ZN7testing8internal11MatcherBaseIiE11ValuePolicyINS0_15AnythingMatcherELb1EE4InitERS2_S4_
FN:411,413,_ZN7testing8internal11MatcherBaseIiE11ValuePolicyINS0_9EqMatcherIiEELb1EE4InitERS2_S5_
FN:445,450,_ZN7testing8internal11MatcherBaseIR7AccountE4InitIRKNS0_15AnythingMatcherEEEvOT_
FN:445,450,_ZN7testing8internal11MatcherBaseIRKSt5tupleIJEEE4InitIRKNS0_15AnythingMatcherEEEvOT_
FN:445,450,_ZN7testing8internal11MatcherBaseIRKSt5tupleIJR7AccountS4_iEEE4InitIRKNS0_15AnythingMatcherEEEvOT_
FN:445,450,_ZN7testing8internal11MatcherBaseIRKSt5tupleIJiEEE4InitIRKNS0_15AnythingMatcherEEEvOT_
FN:445,450,_ZN7testing8internal11MatcherBaseIiE4InitINS0_9EqMatcherIiEEEEvOT_
FN:445,450,_ZN7testing8internal11MatcherBaseIiE4InitIRKNS0_15AnythingMatcherEEEvOT_
FN:483,483,_ZN7testing7MatcherIR7AccountEC2IRKNS_8internal15AnythingMatcherEvEEOT_
FN:483,483,_ZN7testing7MatcherIRKSt5tupleIJEEEC2IRKNS_8internal15AnythingMatcherEvEEOT_
FN:483,483,_ZN7testing7MatcherIRKSt5tupleIJR7AccountS3_iEEEC2IRKNS_8internal15AnythingMatcherEvEEOT_
FN:483,483,_ZN7testing7MatcherIRKSt5tupleIJiEEEC2IRKNS_8internal15AnythingMatcherEvEEOT_
FN:483,483,_ZN7testing7MatcherIiEC2INS_8internal9EqMatcherIiEEvEEOT_
FN:483,483,_ZN7testing7MatcherIiEC2IRKNS_8internal15AnythingMatcherEvEEOT_
FN:694,694,_ZN7testing8internal14ComparisonBaseINS0_9EqMatcherIiEEiSt8equal_toIvEEC2ERKi
FN:699,701,_ZNK7testing8internal14ComparisonBaseINS0_9EqMatcherIiEEiSt8equal_toIvEE15MatchAndExplainIiEEbRKT_PSo
FN:702,705,_ZNK7testing8internal14ComparisonBaseINS0_9EqMatcherIiEEiSt8equal_toIvEE10DescribeToEPSo
FN:706,709,_ZNK7testing8internal14ComparisonBaseINS0_9EqMatcherIiEEiSt8equal_toIvEE18DescribeNegationToEPSo
FN:713,715,_ZN7testing8internal14ComparisonBaseINS0_9EqMatcherIiEEiSt8equal_toIvEE6UnwrapIiEERKT_SA_
FN:727,728,_ZN7testing8internal9EqMatcherIiEC2ERKi
FN:729,729,_ZN7testing8internal9EqMatcherIiE4DescEv
FN:730,730,_ZN7testing8internal9EqMatcherIiE11NegatedDescEv
FN:83,83,_ZN7testing19MatchResultListenerC2EPSo
FN:862,864,_ZN7testing2EqIiEENS_8internal9EqMatcherIT_EES3_
FN:869,871,_ZN7testing7MatcherIiEC2Ei
FN:95,95,_ZN7testing19MatchResultListener6streamEv
FNDA:0,_ZN7testing19MatchResultListenerD0Ev
FNDA:26,_ZN7testing19MatchResultListenerD2Ev
FNDA:0,_ZN7testing25MatcherDescriberInterfaceD0Ev
FNDA:88,_ZN7testing25MatcherDescriberInterfaceD2Ev
FNDA:0,_ZNK7testing25MatcherDescriberInterface18DescribeNegationToEPSo
FNDA:26,_ZN7testing8internal24DummyMatchResultListenerC2Ev
FNDA:0,_ZN7testing8internal17SharedPayloadBase3RefEv
FNDA:0,_ZN7testing8internal17SharedPayloadBase5UnrefEv
FNDA:4,_ZNK7testing8internal11MatcherBaseIR7AccountE15MatchAndExplainES3_PNS_19MatchResultListenerE
FNDA:10,_ZNK7testing8internal11MatcherBaseIRKSt5tupleIJEEE15MatchAndExplainES5_PNS_19MatchResultListenerE
FNDA:2,_ZNK7testing8internal11MatcherBaseIRKSt5tupleIJR7AccountS4_iEEE15MatchAndExplainES7_PNS_19MatchResultListenerE
FNDA:4,_ZNK7testing8internal11MatcherBaseIRKSt5tupleIJiEEE15MatchAndExplainES5_PNS_19MatchResultListenerE
FNDA:6,_ZNK7testing8internal11MatcherBaseIiE15MatchAndExplainERKiPNS_19MatchResultListenerE
FNDA:4,_ZNK7testing8internal11MatcherBaseIR7AccountE7MatchesES3_
FNDA:10,_ZNK7testing8internal11MatcherBaseIRKSt5tupleIJEEE7MatchesES5_
FNDA:2,_ZNK7testing8internal11MatcherBaseIRKSt5tupleIJR7AccountS4_iEEE7MatchesES7_
FNDA:4,_ZNK7testing8internal11MatcherBaseIRKSt5tupleIJiEEE7MatchesES5_
FNDA:6,_ZNK7testing8internal11MatcherBaseIiE7MatchesERKi
FNDA:0,_ZNK7testing8internal11MatcherBaseIR7AccountE10DescribeToEPSo
FNDA:0,_ZNK7testing8internal11MatcherBaseIRKSt5tupleIJEEE10DescribeToEPSo
FNDA:0,_ZNK7testing8internal11MatcherBaseIRKSt5tupleIJR7AccountS4_iEEE10DescribeToEPSo
FNDA:0,_ZNK7testing8internal11MatcherBaseIRKSt5tupleIJiEEE10DescribeToEPSo
FNDA:0,_ZNK7testing8internal11MatcherBaseIiE10DescribeToEPSo
FNDA:0,_ZNK7testing8internal11MatcherBaseIR7AccountE18DescribeNegationToEPSo
FNDA:0,_ZNK7testing8internal11MatcherBaseIRKSt5tupleIJEEE18DescribeNegationToEPSo
FNDA:0,_ZNK7testing8internal11MatcherBaseIRKSt5tupleIJR7AccountS4_iEEE18DescribeNegationToEPSo
FNDA:0,_ZNK7testing8internal11MatcherBaseIRKSt5tupleIJiEEE18DescribeNegationToEPSo
FNDA:0,_ZNK7testing8internal11MatcherBaseIiE18DescribeNegationToEPSo
FNDA:6,_ZN7testing8internal11MatcherBaseIiEC2Ev
FNDA:6,_ZN7testing8internal11MatcherBaseIR7AccountEC2IRKNS0_15AnythingMatcherEvEEOT_
FNDA:10,_ZN7testing8internal11MatcherBaseIRKSt5tupleIJEEEC2IRKNS0_15AnythingMatcherEvEEOT_
FNDA:3,_ZN7testing8internal11MatcherBaseIRKSt5tupleIJR7AccountS4_iEEEC2IRKNS0_15AnythingMatcherEvEEOT_
FNDA:4,_ZN7testing8internal11MatcherBaseIRKSt5tupleIJiEEEC2IRKNS0_15AnythingMatcherEvEEOT_
FNDA:6,_ZN7testing8internal11MatcherBaseIiEC2INS0_9EqMatcherIiEEvEEOT_
FNDA:1,_ZN7testing8internal11MatcherBaseIiEC2IRKNS0_15AnythingMatcherEvEEOT_
FNDA:18,_ZN7testing8internal11MatcherBaseIR7AccountEC2ERKS4_
FNDA:21,_ZN7testing8internal11MatcherBaseIiEC2ERKS2_
FNDA:6,_ZN7testing8internal11MatcherBaseIR7AccountEC2EOS4_
FNDA:7,_ZN7testing8internal11MatcherBaseIiEC2EOS2_
FNDA:6,_ZN7testing8internal11MatcherBaseIiEaSEOS2_
FNDA:0,_ZN7testing8internal11MatcherBaseIR7AccountED0Ev
FNDA:30,_ZN7testing8internal11MatcherBaseIR7AccountED2Ev
FNDA:0,_ZN7testing8internal11MatcherBaseIRKSt5tupleIJEEED0Ev
FNDA:10,_ZN7testing8internal11MatcherBaseIRKSt5tupleIJEEED2Ev
FNDA:0,_ZN7testing8internal11MatcherBaseIRKSt5tupleIJR7AccountS4_iEEED0Ev
FNDA:3,_ZN7testing8internal11MatcherBaseIRKSt5tupleIJR7AccountS4_iEEED2Ev
FNDA:0,_ZN7testing8internal11MatcherBaseIRKSt5tupleIJiEEED0Ev
FNDA:4,_ZN7testing8internal11MatcherBaseIRKSt5tupleIJiEEED2Ev
FNDA:0,_ZN7testing8internal11MatcherBaseIiED0Ev
FNDA:41,_ZN7testing8internal11MatcherBaseIiED2Ev
FNDA:48,_ZNK7testing8internal11MatcherBaseIR7AccountE8IsSharedEv
FNDA:10,_ZNK7testing8internal11MatcherBaseIRKSt5tupleIJEEE8IsSharedEv
FNDA:3,_ZNK7testing8internal11MatcherBaseIRKSt5tupleIJR7AccountS4_iEEE8IsSharedEv
FNDA:4,_ZNK7testing8internal11MatcherBaseIRKSt5tupleIJiEEE8IsSharedEv
FNDA:68,_ZNK7testing8internal11MatcherBaseIiE8IsSharedEv
FNDA:4,_ZN7testing8internal11MatcherBaseIR7AccountE19MatchAndExplainImplINS4_11ValuePolicyINS0_15AnythingMatcherELb1EEEEEDTcldtclsrT_3Getfp_E15MatchAndExplainfp0_clptfp1_L_ZNS_19MatchResultListener6streamEvEEEERKS4_S3_PSA_
FNDA:10,_ZN7testing8internal11MatcherBaseIRKSt5tupleIJEEE19MatchAndExplainImplINS6_11ValuePolicyINS0_15AnythingMatcherELb1EEEEEDTcldtclsrT_3Getfp_E15MatchAndExplainfp0_clptfp1_L_ZNS_19MatchResultListener6streamEvEEEERKS6_S5_PSC_
FNDA:2,_ZN7testing8internal11MatcherBaseIRKSt5tupleIJR7AccountS4_iEEE19MatchAndExplainImplINS8_11ValuePolicyINS0_15AnythingMatcherELb1EEEEEDTcldtclsrT_3Getfp_E15MatchAndExplainfp0_clptfp1_L_ZNS_19MatchResultListener6streamEvEEEERKS8_S7_PSE_
FNDA:4,_ZN7testing8internal11MatcherBaseIRKSt5tupleIJiEEE19MatchAndExplainImplINS6_11ValuePolicyINS0_15AnythingMatcherELb1EEEEEDTcldtclsrT_3Getfp_E15MatchAndExplainfp0_clptfp1_L_ZNS_19MatchResultListener6streamEvEEEERKS6_S5_PSC_
FNDA:0,_ZN7testing8internal11MatcherBaseIiE19MatchAndExplainImplINS2_11ValuePolicyINS0_15AnythingMatcherELb1EEEEEDTcldtclsrT_3Getfp_E15MatchAndExplainfp0_clptfp1_L_ZNS_19MatchResultListener6streamEvEEEERKS2_RKiPS8_
FNDA:6,_ZN7testing8internal11MatcherBaseIiE19MatchAndExplainImplINS2_11ValuePolicyINS0_9EqMatcherIiEELb1EEEEEDTcldtclsrT_3Getfp_E15MatchAndExplainfp0_clptfp1_L_ZNS_19MatchResultListener6streamEvEEEERKS2_RKiPS9_
FNDA:0,_ZN7testing8internal11MatcherBaseIR7AccountE12DescribeImplINS4_11ValuePolicyINS0_15AnythingMatcherELb1EEEEEvRKS4_PSob
FNDA:0,_ZN7testing8internal11MatcherBaseIRKSt5tupleIJEEE12DescribeImplINS6_11ValuePolicyINS0_15AnythingMatcherELb1EEEEEvRKS6_PSob
FNDA:0,_ZN7testing8internal11MatcherBaseIRKSt5tupleIJR7AccountS4_iEEE12DescribeImplINS8_11ValuePolicyINS0_15AnythingMatcherELb1EEEEEvRKS8_PSob
FNDA:0,_ZN7testing8internal11MatcherBaseIRKSt5tupleIJiEEE12DescribeImplINS6_11ValuePolicyINS0_15AnythingMatcherELb1EEEEEvRKS6_PSob
FNDA:0,_ZN7testing8internal11MatcherBaseIiE12DescribeImplINS2_11ValuePolicyINS0_15AnythingMatcherELb1EEEEEvRKS2_PSob
FNDA:0,_ZN7testing8internal11MatcherBaseIiE12DescribeImplINS2_11ValuePolicyINS0_9EqMatcherIiEELb1EEEEEvRKS2_PSob
FNDA:0,_ZN7testing8internal11MatcherBaseIR7AccountE16GetDescriberImplINS4_11ValuePolicyINS0_15AnythingMatcherELb1EEEEEPKNS_25MatcherDescriberInterfaceERKS4_
FNDA:0,_ZN7testing8internal11MatcherBaseIRKSt5tupleIJEEE16GetDescriberImplINS6_11ValuePolicyINS0_15AnythingMatcherELb1EEEEEPKNS_25MatcherDescriberInterfaceERKS6_
FNDA:0,_ZN7testing8internal11MatcherBaseIRKSt5tupleIJR7AccountS4_iEEE16GetDescriberImplINS8_11ValuePolicyINS0_15AnythingMatcherELb1EEEEEPKNS_25MatcherDescriberInterfaceERKS8_
FNDA:0,_ZN7testing8internal11MatcherBaseIRKSt5tupleIJiEEE16GetDescriberImplINS6_11ValuePolicyINS0_15AnythingMatcherELb1EEEEEPKNS_25MatcherDescriberInterfaceERKS6_
FNDA:0,_ZN7testing8internal11MatcherBaseIiE16GetDescriberImplINS2_11ValuePolicyINS0_15AnythingMatcherELb1EEEEEPKNS_25MatcherDescriberInterfaceERKS2_
FNDA:0,_ZN7testing8internal11MatcherBaseIiE16GetDescriberImplINS2_11ValuePolicyINS0_9EqMatcherIiEELb1EEEEEPKNS_25MatcherDescriberInterfaceERKS2_
FNDA:6,_ZN7testing8internal11MatcherBaseIR7AccountE9GetVTableINS4_11ValuePolicyINS0_15AnythingMatcherELb1EEEEEPKNS4_6VTableEv
FNDA:10,_ZN7testing8internal11MatcherBaseIRKSt5tupleIJEEE9GetVTableINS6_11ValuePolicyINS0_15AnythingMatcherELb1EEEEEPKNS6_6VTableEv
FNDA:3,_ZN7testing8internal11MatcherBaseIRKSt5tupleIJR7AccountS4_iEEE9GetVTableINS8_11ValuePolicyINS0_15AnythingMatcherELb1EEEEEPKNS8_6VTableEv
FNDA:4,_ZN7testing8internal11MatcherBaseIRKSt5tupleIJiEEE9GetVTableINS6_11ValuePolicyINS0_15AnythingMatcherELb1EEEEEPKNS6_6VTableEv
FNDA:1,_ZN7testing8internal11MatcherBaseIiE9GetVTableINS2_11ValuePolicyINS0_15AnythingMatcherELb1EEEEEPKNS2_6VTableEv
FNDA:6,_ZN7testing8internal11MatcherBaseIiE9GetVTableINS2_11ValuePolicyINS0_9EqMatcherIiEELb1EEEEEPKNS2_6VTableEv
FNDA:30,_ZN7testing8internal11MatcherBaseIR7AccountE7DestroyEv
FNDA:10,_ZN7testing8internal11MatcherBaseIRKSt5tupleIJEEE7DestroyEv
FNDA:3,_ZN7testing8internal11MatcherBaseIRKSt5tupleIJR7AccountS4_iEEE7DestroyEv
FNDA:4,_ZN7testing8internal11MatcherBaseIRKSt5tupleIJiEEE7DestroyEv
FNDA:47,_ZN7testing8internal11MatcherBaseIiE7DestroyEv
FNDA:4,_ZN7testing8internal11MatcherBaseIR7AccountE11ValuePolicyINS0_15AnythingMatcherELb1EE3GetERKS4_
FNDA:10,_ZN7testing8internal11MatcherBaseIRKSt5tupleIJEEE11ValuePolicyINS0_15AnythingMatcherELb1EE3GetERKS6_
FNDA:2,_ZN7testing8internal11MatcherBaseIRKSt5tupleIJR7AccountS4_iEEE11ValuePolicyINS0_15AnythingMatcherELb1EE3GetERKS8_
FNDA:4,_ZN7testing8internal11MatcherBaseIRKSt5tupleIJiEEE11ValuePolicyINS0_15AnythingMatcherELb1EE3GetERKS6_
FNDA:0,_ZN7testing8internal11MatcherBaseIiE11ValuePolicyINS0_15AnythingMatcherELb1EE3GetERKS2_
FNDA:6,_ZN7testing8internal11MatcherBaseIiE11ValuePolicyINS0_9EqMatcherIiEELb1EE3GetERKS2_
FNDA:6,_ZN7testing8internal11MatcherBaseIR7AccountE11ValuePolicyINS0_15AnythingMatcherELb1EE4InitERS4_S6_
FNDA:10,_ZN7testing8internal11MatcherBaseIRKSt5tupleIJEEE11ValuePolicyINS0_15AnythingMatcherELb1EE4InitERS6_S8_
FNDA:3,_ZN7testing8internal11MatcherBaseIRKSt5tupleIJR7AccountS4_iEEE11ValuePolicyINS0_15AnythingMatcherELb1EE4InitERS8_SA_
FNDA:4,_ZN7testing8internal11MatcherBaseIRKSt5tupleIJiEEE11ValuePolicyINS0_15AnythingMatcherELb1EE4InitERS6_S8_
FNDA:1,_ZN7testing8internal11MatcherBaseIiE11ValuePolicyINS0_15AnythingMatcherELb1EE4InitERS2_S4_
FNDA:6,_ZN7testing8internal11MatcherBaseIiE11ValuePolicyINS0_9EqMatcherIiEELb1EE4InitERS2_S5_
FNDA:6,_ZN7testing8internal11MatcherBaseIR7AccountE4InitIRKNS0_15AnythingMatcherEEEvOT_
FNDA:10,_ZN7testing8internal11MatcherBaseIRKSt5tupleIJEEE4InitIRKNS0_15AnythingMatcherEEEvOT_
FNDA:3,_ZN7testing8internal11MatcherBaseIRKSt5tupleIJR7AccountS4_iEEE4InitIRKNS0_15AnythingMatcherEEEvOT_
FNDA:4,_ZN7testing8internal11MatcherBaseIRKSt5tupleIJiEEE4InitIRKNS0_15AnythingMatcherEEEvOT_
FNDA:6,_ZN7testing8internal11MatcherBaseIiE4InitINS0_9EqMatcherIiEEEEvOT_
FNDA:1,_ZN7testing8internal11MatcherBaseIiE4InitIRKNS0_15AnythingMatcherEEEvOT_
FNDA:6,_ZN7testing7MatcherIR7AccountEC2IRKNS_8internal15AnythingMatcherEvEEOT_
FNDA:10,_ZN7testing7MatcherIRKSt5tupleIJEEEC2IRKNS_8internal15AnythingMatcherEvEEOT_
FNDA:3,_ZN7testing7MatcherIRKSt5tupleIJR7AccountS3_iEEEC2IRKNS_8internal15AnythingMatcherEvEEOT_
FNDA:4,_ZN7testing7MatcherIRKSt5tupleIJiEEEC2IRKNS_8internal15AnythingMatcherEvEEOT_
FNDA:6,_ZN7testing7MatcherIiEC2INS_8internal9EqMatcherIiEEvEEOT_
FNDA:1,_ZN7testing7MatcherIiEC2IRKNS_8internal15AnythingMatcherEvEEOT_
FNDA:6,_ZN7testing8internal14ComparisonBaseINS0_9EqMatcherIiEEiSt8equal_toIvEEC2ERKi
FNDA:6,_ZNK7testing8internal14ComparisonBaseINS0_9EqMatcherIiEEiSt8equal_toIvEE15MatchAndExplainIiEEbRKT_PSo
FNDA:0,_ZNK7testing8internal14ComparisonBaseINS0_9EqMatcherIiEEiSt8equal_toIvEE10DescribeToEPSo
FNDA:0,_ZNK7testing8internal14ComparisonBaseINS0_9EqMatcherIiEEiSt8equal_toIvEE18DescribeNegationToEPSo
FNDA:6,_ZN7testing8internal14ComparisonBaseINS0_9EqMatcherIiEEiSt8equal_toIvEE6UnwrapIiEERKT_SA_
FNDA:6,_ZN7testing8internal9EqMatcherIiEC2ERKi
FNDA:0,_ZN7testing8internal9EqMatcherIiE4DescEv
FNDA:0,_ZN7testing8internal9EqMatcherIiE11NegatedDescEv
FNDA:26,_ZN7testing19MatchResultListenerC2EPSo
FNDA:6,_ZN7testing2EqIiEENS_8internal9EqMatcherIT_EES3_
FNDA:6,_ZN7testing7MatcherIiEC2Ei
FNDA:26,_ZN7testing19MatchResultListener6streamEv
FNF:120
FNH:82
DA:83,26
DA:95,26
DA:110,26
DA:116,88
DA:131,0
DA:132,0
DA:133,0
DA:134,0
DA:135,0
DA:185,26
DA:208,0
DA:209,0
DA:232,26
DA:233,26
DA:234,26
DA:238,26
DA:239,26
DA:240,52
DA:241,26
DA:244,0
DA:245,0
DA:246,0
DA:247,0
DA:250,0
DA:251,0
DA:252,0
DA:253,0
DA:270,6
DA:281,30
DA:282,30
DA:283,30
DA:285,39
DA:286,39
DA:287,39
DA:288,39
DA:299,13
DA:300,13
DA:301,13
DA:302,13
DA:304,6
DA:305,6
DA:306,6
DA:307,6
DA:308,6
DA:309,6
DA:310,6
DA:313,88
DA:327,133
DA:328,133
DA:333,26
DA:336,26
DA:347,0
DA:349,0
DA:350,0
DA:352,0
DA:354,0
DA:357,0
DA:369,0
DA:373,30
DA:377,30
DA:389,94
DA:390,94
DA:391,0
DA:393,94
DA:404,26
DA:407,26
DA:409,26
DA:411,30
DA:412,30
DA:413,30
DA:445,30
DA:448,30
DA:449,30
DA:450,30
DA:483,30
DA:694,6
DA:699,6
DA:700,6
DA:702,0
DA:703,0
DA:704,0
DA:705,0
DA:706,0
DA:707,0
DA:708,0
DA:709,0
DA:713,6
DA:714,6
DA:727,6
DA:728,6
DA:729,0
DA:730,0
DA:862,6
DA:863,6
DA:869,6
DA:870,6
DA:871,6
LF:97
LH:64
end_of_record
TN:
SF:/home/ilyasov_ilya/ferdosiakrymskaa-svg/workspace/projects/lab05/lab05/third-party/gtest/googletest/include/gtest/gtest-message.h
FN:132,150,_ZN7testing7MessagelsIA2_cEERS0_RKT_
FN:132,150,_ZN7testing7MessagelsINSt7__cxx1112basic_stringIcSt11char_traitsIcESaIcEEEEERS0_RKT_
FN:132,150,_ZN7testing7MessagelsImEERS0_RKT_
FNDA:5,_ZN7testing7MessagelsIA2_cEERS0_RKT_
FNDA:9,_ZN7testing7MessagelsINSt7__cxx1112basic_stringIcSt11char_traitsIcESaIcEEEEERS0_RKT_
FNDA:4,_ZN7testing7MessagelsImEERS0_RKT_
FNF:3
FNH:3
DA:132,18
DA:148,18
DA:149,18
LF:3
LH:3
end_of_record
TN:
SF:/home/ilyasov_ilya/ferdosiakrymskaa-svg/workspace/projects/lab05/lab05/third-party/gtest/googletest/include/gtest/gtest-param-test.h
FN:297,301,_ZN7testing8ValuesInIN9__gnu_cxx17__normal_iteratorIPKiSt6vectorIiSaIiEEEEEENS_8internal14ParamGeneratorINSt15iterator_traitsIT_E10value_typeEEESC_SC_
FN:309,312,_ZN7testing8ValuesInISt6vectorIiSaIiEEEENS_8internal14ParamGeneratorINT_10value_typeEEERKS6_
FN:335,337,_ZN7testing6ValuesIJiiiiEEENS_8internal10ValueArrayIJDpT_EEES4_
FNDA:1,_ZN7testing8ValuesInIN9__gnu_cxx17__normal_iteratorIPKiSt6vectorIiSaIiEEEEEENS_8internal14ParamGeneratorINSt15iterator_traitsIT_E10value_typeEEESC_SC_
FNDA:1,_ZN7testing8ValuesInISt6vectorIiSaIiEEEENS_8internal14ParamGeneratorINT_10value_typeEEERKS6_
FNDA:1,_ZN7testing6ValuesIJiiiiEEENS_8internal10ValueArrayIJDpT_EEES4_
FNF:3
FNH:3
DA:297,1
DA:300,1
DA:309,1
DA:311,1
DA:335,1
DA:336,1
LF:6
LH:6
end_of_record
TN:
SF:/home/ilyasov_ilya/ferdosiakrymskaa-svg/workspace/projects/lab05/lab05/third-party/gtest/googletest/include/gtest/gtest-printers.h
FN:1108,1113,_ZN7testing8internal14UniversalPrintI7AccountEEvRKT_PSo
FN:1108,1113,_ZN7testing8internal14UniversalPrintISt5tupleIJEEEEvRKT_PSo
FN:1108,1113,_ZN7testing8internal14UniversalPrintISt5tupleIJR7AccountS4_iEEEEvRKT_PSo
FN:1108,1113,_ZN7testing8internal14UniversalPrintISt5tupleIJiEEEEvRKT_PSo
FN:1108,1113,_ZN7testing8internal14UniversalPrintIiEEvRKT_PSo
FN:1148,1152,_ZN7testing13PrintToStringIiEENSt7__cxx1112basic_stringIcSt11char_traitsIcESaIcEEERKT_
FN:221,226,_ZN7testing8internal52internal_stream_operator_without_lexical_name_lookup13StreamPrinter10PrintValueIivEEDTcvvlsdefp0_fp_ERKT_PSo
FN:289,295,_ZN7testing8internal15RawBytesPrinter10PrintValueI7AccountLm24EEEvRKT_PSo
FN:326,337,_ZN7testing8internal17PrintWithFallbackI7AccountEEvRKT_PSo
FN:326,337,_ZN7testing8internal17PrintWithFallbackIiEEvRKT_PSo
FN:357,359,_ZN7testing8internal19FormatForComparisonIiiE6FormatB5cxx11ERKi
FN:437,440,_ZN7testing8internal33FormatForComparisonFailureMessageIiiEENSt7__cxx1112basic_stringIcSt11char_traitsIcESaIcEEERKT_RKT0_
FN:464,466,_ZN7testing8internal7PrintToI7AccountEEvRKT_PSo
FN:464,466,_ZN7testing8internal7PrintToIiEEvRKT_PSo
FN:752,753,_ZN7testing8internal12PrintTupleToISt5tupleIJEEEEvRKT_St17integral_constantImLm0EEPSo
FN:752,753,_ZN7testing8internal12PrintTupleToISt5tupleIJR7AccountS4_iEEEEvRKT_St17integral_constantImLm0EEPSo
FN:752,753,_ZN7testing8internal12PrintTupleToISt5tupleIJiEEEEvRKT_St17integral_constantImLm0EEPSo
FN:756,766,_ZN7testing8internal12PrintTupleToISt5tupleIJR7AccountS4_iEELm1EEEvRKT_St17integral_constantImXT0_EEPSo
FN:756,766,_ZN7testing8internal12PrintTupleToISt5tupleIJR7AccountS4_iEELm2EEEvRKT_St17integral_constantImXT0_EEPSo
FN:756,766,_ZN7testing8internal12PrintTupleToISt5tupleIJR7AccountS4_iEELm3EEEvRKT_St17integral_constantImXT0_EEPSo
FN:756,766,_ZN7testing8internal12PrintTupleToISt5tupleIJiEELm1EEEvRKT_St17integral_constantImXT0_EEPSo
FN:769,773,_ZN7testing8internal7PrintToIJEEEvRKSt5tupleIJDpT_EEPSo
FN:769,773,_ZN7testing8internal7PrintToIJR7AccountS3_iEEEvRKSt5tupleIJDpT_EEPSo
FN:769,773,_ZN7testing8internal7PrintToIJiEEEvRKSt5tupleIJDpT_EEPSo
FN:799,809,_ZN7testing8internal16UniversalPrinterI7AccountE5PrintERKS2_PSo
FN:799,809,_ZN7testing8internal16UniversalPrinterISt5tupleIJEEE5PrintERKS3_PSo
FN:799,809,_ZN7testing8internal16UniversalPrinterISt5tupleIJR7AccountS4_iEEE5PrintERKS5_PSo
FN:799,809,_ZN7testing8internal16UniversalPrinterISt5tupleIJiEEE5PrintERKS3_PSo
FN:799,809,_ZN7testing8internal16UniversalPrinterIiE5PrintERKiPSo
FN:970,977,_ZN7testing8internal16UniversalPrinterIR7AccountE5PrintERKS2_PSo
FN:989,991,_ZN7testing8internal21UniversalTersePrinterIiE5PrintERKiPSo
FNDA:0,_ZN7testing8internal14UniversalPrintI7AccountEEvRKT_PSo
FNDA:0,_ZN7testing8internal14UniversalPrintISt5tupleIJEEEEvRKT_PSo
FNDA:0,_ZN7testing8internal14UniversalPrintISt5tupleIJR7AccountS4_iEEEEvRKT_PSo
FNDA:0,_ZN7testing8internal14UniversalPrintISt5tupleIJiEEEEvRKT_PSo
FNDA:4,_ZN7testing8internal14UniversalPrintIiEEvRKT_PSo
FNDA:4,_ZN7testing13PrintToStringIiEENSt7__cxx1112basic_stringIcSt11char_traitsIcESaIcEEERKT_
FNDA:4,_ZN7testing8internal52internal_stream_operator_without_lexical_name_lookup13StreamPrinter10PrintValueIivEEDTcvvlsdefp0_fp_ERKT_PSo
FNDA:0,_ZN7testing8internal15RawBytesPrinter10PrintValueI7AccountLm24EEEvRKT_PSo
FNDA:0,_ZN7testing8internal17PrintWithFallbackI7AccountEEvRKT_PSo
FNDA:4,_ZN7testing8internal17PrintWithFallbackIiEEvRKT_PSo
FNDA:0,_ZN7testing8internal19FormatForComparisonIiiE6FormatB5cxx11ERKi
FNDA:0,_ZN7testing8internal33FormatForComparisonFailureMessageIiiEENSt7__cxx1112basic_stringIcSt11char_traitsIcESaIcEEERKT_RKT0_
FNDA:0,_ZN7testing8internal7PrintToI7AccountEEvRKT_PSo
FNDA:4,_ZN7testing8internal7PrintToIiEEvRKT_PSo
FNDA:0,_ZN7testing8internal12PrintTupleToISt5tupleIJEEEEvRKT_St17integral_constantImLm0EEPSo
FNDA:0,_ZN7testing8internal12PrintTupleToISt5tupleIJR7AccountS4_iEEEEvRKT_St17integral_constantImLm0EEPSo
FNDA:0,_ZN7testing8internal12PrintTupleToISt5tupleIJiEEEEvRKT_St17integral_constantImLm0EEPSo
FNDA:0,_ZN7testing8internal12PrintTupleToISt5tupleIJR7AccountS4_iEELm1EEEvRKT_St17integral_constantImXT0_EEPSo
FNDA:0,_ZN7testing8internal12PrintTupleToISt5tupleIJR7AccountS4_iEELm2EEEvRKT_St17integral_constantImXT0_EEPSo
FNDA:0,_ZN7testing8internal12PrintTupleToISt5tupleIJR7AccountS4_iEELm3EEEvRKT_St17integral_constantImXT0_EEPSo
FNDA:0,_ZN7testing8internal12PrintTupleToISt5tupleIJiEELm1EEEvRKT_St17integral_constantImXT0_EEPSo
FNDA:0,_ZN7testing8internal7PrintToIJEEEvRKSt5tupleIJDpT_EEPSo
FNDA:0,_ZN7testing8internal7PrintToIJR7AccountS3_iEEEvRKSt5tupleIJDpT_EEPSo
FNDA:0,_ZN7testing8internal7PrintToIJiEEEvRKSt5tupleIJDpT_EEPSo
FNDA:0,_ZN7testing8internal16UniversalPrinterI7AccountE5PrintERKS2_PSo
FNDA:0,_ZN7testing8internal16UniversalPrinterISt5tupleIJEEE5PrintERKS3_PSo
FNDA:0,_ZN7testing8internal16UniversalPrinterISt5tupleIJR7AccountS4_iEEE5PrintERKS5_PSo
FNDA:0,_ZN7testing8internal16UniversalPrinterISt5tupleIJiEEE5PrintERKS3_PSo
FNDA:4,_ZN7testing8internal16UniversalPrinterIiE5PrintERKiPSo
FNDA:0,_ZN7testing8internal16UniversalPrinterIR7AccountE5PrintERKS2_PSo
FNDA:4,_ZN7testing8internal21UniversalTersePrinterIiE5PrintERKiPSo
FNF:31
FNH:7
DA:221,4
DA:225,4
DA:226,4
DA:289,0
DA:290,0
DA:293,0
DA:295,0
DA:326,4
DA:336,4
DA:337,4
DA:357,0
DA:358,0
DA:437,0
DA:439,0
DA:464,4
DA:465,4
DA:466,4
DA:752,0
DA:753,0
DA:756,0
DA:758,0
DA:762,0
DA:764,0
DA:765,0
DA:766,0
DA:769,0
DA:770,0
DA:771,0
DA:772,0
DA:773,0
DA:799,4
DA:808,4
DA:809,4
DA:970,0
DA:973,0
DA:976,0
DA:977,0
DA:989,4
DA:990,4
DA:991,4
DA:1108,4
DA:1112,4
DA:1113,4
DA:1148,4
DA:1149,4
DA:1150,4
DA:1151,8
DA:1152,4
LF:48
LH:23
end_of_record
TN:
SF:/home/ilyasov_ilya/ferdosiakrymskaa-svg/workspace/projects/lab05/lab05/third-party/gtest/googletest/include/gtest/gtest.h
FN:1359,1365,_ZN7testing8internal18CmpHelperEQFailureIiiEENS_15AssertionResultEPKcS4_RKT_RKT0_
FN:1376,1384,_ZN7testing8internal11CmpHelperEQIiiEENS_15AssertionResultEPKcS4_RKT_RKT0_
FN:1395,1399,_ZN7testing8internal8EqHelper7CompareIiiLPv0EEENS_15AssertionResultEPKcS6_RKT_RKT0_
FN:1677,1677,_ZN7testing18WithParamInterfaceIiED0Ev
FN:1677,1677,_ZN7testing18WithParamInterfaceIiED2Ev
FN:1681,1686,_ZN7testing18WithParamInterfaceIiE8GetParamEv
FN:1691,1691,_ZN7testing18WithParamInterfaceIiE8SetParamEPKi
FN:256,256,_ZN7testing4Test14SetUpTestSuiteEv
FN:264,264,_ZN7testing4Test17TearDownTestSuiteEv
FN:269,269,_ZN7testing4Test16TearDownTestCaseEv
FN:270,270,_ZN7testing4Test13SetUpTestCaseEv
FN:357,357,_ZN7testing4Test5SetupEv
FNDA:0,_ZN7testing8internal18CmpHelperEQFailureIiiEENS_15AssertionResultEPKcS4_RKT_RKT0_
FNDA:8,_ZN7testing8internal11CmpHelperEQIiiEENS_15AssertionResultEPKcS4_RKT_RKT0_
FNDA:8,_ZN7testing8internal8EqHelper7CompareIiiLPv0EEENS_15AssertionResultEPKcS6_RKT_RKT0_
FNDA:0,_ZN7testing18WithParamInterfaceIiED0Ev
FNDA:4,_ZN7testing18WithParamInterfaceIiED2Ev
FNDA:8,_ZN7testing18WithParamInterfaceIiE8GetParamEv
FNDA:4,_ZN7testing18WithParamInterfaceIiE8SetParamEPKi
FNDA:0,_ZN7testing4Test14SetUpTestSuiteEv
FNDA:0,_ZN7testing4Test17TearDownTestSuiteEv
FNDA:0,_ZN7testing4Test16TearDownTestCaseEv
FNDA:0,_ZN7testing4Test13SetUpTestCaseEv
FNDA:0,_ZN7testing4Test5SetupEv
FNF:12
FNH:5
DA:256,0
DA:264,0
DA:269,0
DA:270,0
DA:357,0
DA:1359,0
DA:1364,0
DA:1376,8
DA:1379,8
DA:1380,8
DA:1383,0
DA:1395,8
DA:1398,8
DA:1677,4
DA:1681,8
DA:1682,8
DA:1684,0
DA:1685,8
DA:1691,4
LF:19
LH:10
end_of_record
TN:
SF:/home/ilyasov_ilya/ferdosiakrymskaa-svg/workspace/projects/lab05/lab05/third-party/gtest/googletest/include/gtest/internal/gtest-internal.h
FN:1217,1218,_ZN7testing8internal17FlatTupleElemBaseINS0_9FlatTupleIJiiiiEEELm0EEC2IiEENS0_21FlatTupleConstructTagEOT_
FN:1217,1218,_ZN7testing8internal17FlatTupleElemBaseINS0_9FlatTupleIJiiiiEEELm1EEC2IiEENS0_21FlatTupleConstructTagEOT_
FN:1217,1218,_ZN7testing8internal17FlatTupleElemBaseINS0_9FlatTupleIJiiiiEEELm2EEC2IiEENS0_21FlatTupleConstructTagEOT_
FN:1217,1218,_ZN7testing8internal17FlatTupleElemBaseINS0_9FlatTupleIJiiiiEEELm3EEC2IiEENS0_21FlatTupleConstructTagEOT_
FN:1231,1233,_ZN7testing8internal13FlatTupleBaseINS0_9FlatTupleIJiiiiEEENS0_13IndexSequenceIJLm0ELm1ELm2ELm3EEEEEC2IJiiiiEEENS0_21FlatTupleConstructTagEDpOT_
FN:1236,1238,_ZNK7testing8internal13FlatTupleBaseINS0_9FlatTupleIJiiiiEEENS0_13IndexSequenceIJLm0ELm1ELm2ELm3EEEEE3GetILm0EEERKNS0_12ElemFromListIXT_EJiiiiEE4typeEv
FN:1236,1238,_ZNK7testing8internal13FlatTupleBaseINS0_9FlatTupleIJiiiiEEENS0_13IndexSequenceIJLm0ELm1ELm2ELm3EEEEE3GetILm1EEERKNS0_12ElemFromListIXT_EJiiiiEE4typeEv
FN:1236,1238,_ZNK7testing8internal13FlatTupleBaseINS0_9FlatTupleIJiiiiEEENS0_13IndexSequenceIJLm0ELm1ELm2ELm3EEEEE3GetILm2EEERKNS0_12ElemFromListIXT_EJiiiiEE4typeEv
FN:1236,1238,_ZNK7testing8internal13FlatTupleBaseINS0_9FlatTupleIJiiiiEEENS0_13IndexSequenceIJLm0ELm1ELm2ELm3EEEEE3GetILm3EEERKNS0_12ElemFromListIXT_EJiiiiEE4typeEv
FN:1275,1276,_ZN7testing8internal9FlatTupleIJiiiiEEC2IJiiiiEEENS0_21FlatTupleConstructTagEDpOT_
FN:419,425,_ZN7testing8internal9GetTypeIdI15TransactionTestEEPKvv
FN:419,425,_ZN7testing8internal9GetTypeIdI18AccountBalanceTestEEPKvv
FN:419,425,_ZN7testing8internal9GetTypeIdI20AccountBehaviourTestEEPKvv
FN:438,438,_ZN7testing8internal15TestFactoryBaseD0Ev
FN:438,438,_ZN7testing8internal15TestFactoryBaseD2Ev
FN:445,445,_ZN7testing8internal15TestFactoryBaseC2Ev
FN:457,457,_ZN7testing8internal15TestFactoryImplI27TransactionTest_SetFee_TestE10CreateTestEv
FN:457,457,_ZN7testing8internal15TestFactoryImplI29TransactionTest_TooSmall_TestE10CreateTestEv
FN:457,457,_ZN7testing8internal15TestFactoryImplI31TransactionTest_DefaultFee_TestE10CreateTestEv
FN:457,457,_ZN7testing8internal15TestFactoryImplI31TransactionTest_FeeExceeds_TestE10CreateTestEv
FN:457,457,_ZN7testing8internal15TestFactoryImplI31TransactionTest_Successful_TestE10CreateTestEv
FN:457,457,_ZN7testing8internal15TestFactoryImplI32TransactionTest_NegativeSum_TestE10CreateTestEv
FN:457,457,_ZN7testing8internal15TestFactoryImplI32TransactionTest_SameAccount_TestE10CreateTestEv
FN:457,457,_ZN7testing8internal15TestFactoryImplI35TransactionTest_NotEnoughFunds_TestE10CreateTestEv
FN:457,457,_ZN7testing8internal15TestFactoryImplI36AccountBehaviourTest_LockUnlock_TestE10CreateTestEv
FN:457,457,_ZN7testing8internal15TestFactoryImplI37AccountBehaviourTest_IdIsCorrect_TestE10CreateTestEv
FN:457,457,_ZN7testing8internal15TestFactoryImplI44RealTransaction_SaveToDataBaseExecution_TestE10CreateTestEv
FN:457,457,_ZN7testing8internal15TestFactoryImplI49AccountBehaviourTest_ChangeBalanceWhenLocked_TestE10CreateTestEv
FN:457,457,_ZN7testing8internal15TestFactoryImplI51AccountBehaviourTest_ChangeBalanceWhenUnlocked_TestE10CreateTestEv
FN:478,479,_ZN7testing8internal12CodeLocationC2ERKNSt7__cxx1112basic_stringIcSt11char_traitsIcESaIcEEEi
FN:491,494,_ZN7testing8internal19GetNotDefaultOrNullEPFvvES2_
FN:506,525,_ZN7testing8internal16SuiteApiResolverI15TransactionTestE19GetSetUpCaseOrSuiteEPKci
FN:506,525,_ZN7testing8internal16SuiteApiResolverI18AccountBalanceTestE19GetSetUpCaseOrSuiteEPKci
FN:506,525,_ZN7testing8internal16SuiteApiResolverI20AccountBehaviourTestE19GetSetUpCaseOrSuiteEPKci
FN:506,525,_ZN7testing8internal16SuiteApiResolverINS_4TestEE19GetSetUpCaseOrSuiteEPKci
FN:527,546,_ZN7testing8internal16SuiteApiResolverI15TransactionTestE22GetTearDownCaseOrSuiteEPKci
FN:527,546,_ZN7testing8internal16SuiteApiResolverI18AccountBalanceTestE22GetTearDownCaseOrSuiteEPKci
FN:527,546,_ZN7testing8internal16SuiteApiResolverI20AccountBehaviourTestE22GetTearDownCaseOrSuiteEPKci
FN:527,546,_ZN7testing8internal16SuiteApiResolverINS_4TestEE22GetTearDownCaseOrSuiteEPKci
FN:829,829,_ZN7testing8internal11AlwaysFalseEv
FN:843,843,_ZN7testing8internal14TrueWithStringC2Ev
FN:846,846,_ZNK7testing8internal14TrueWithStringcvbEv
FNDA:1,_ZN7testing8internal17FlatTupleElemBaseINS0_9FlatTupleIJiiiiEEELm0EEC2IiEENS0_21FlatTupleConstructTagEOT_
FNDA:1,_ZN7testing8internal17FlatTupleElemBaseINS0_9FlatTupleIJiiiiEEELm1EEC2IiEENS0_21FlatTupleConstructTagEOT_
FNDA:1,_ZN7testing8internal17FlatTupleElemBaseINS0_9FlatTupleIJiiiiEEELm2EEC2IiEENS0_21FlatTupleConstructTagEOT_
FNDA:1,_ZN7testing8internal17FlatTupleElemBaseINS0_9FlatTupleIJiiiiEEELm3EEC2IiEENS0_21FlatTupleConstructTagEOT_
FNDA:1,_ZN7testing8internal13FlatTupleBaseINS0_9FlatTupleIJiiiiEEENS0_13IndexSequenceIJLm0ELm1ELm2ELm3EEEEEC2IJiiiiEEENS0_21FlatTupleConstructTagEDpOT_
FNDA:1,_ZNK7testing8internal13FlatTupleBaseINS0_9FlatTupleIJiiiiEEENS0_13IndexSequenceIJLm0ELm1ELm2ELm3EEEEE3GetILm0EEERKNS0_12ElemFromListIXT_EJiiiiEE4typeEv
FNDA:1,_ZNK7testing8internal13FlatTupleBaseINS0_9FlatTupleIJiiiiEEENS0_13IndexSequenceIJLm0ELm1ELm2ELm3EEEEE3GetILm1EEERKNS0_12ElemFromListIXT_EJiiiiEE4typeEv
FNDA:1,_ZNK7testing8internal13FlatTupleBaseINS0_9FlatTupleIJiiiiEEENS0_13IndexSequenceIJLm0ELm1ELm2ELm3EEEEE3GetILm2EEERKNS0_12ElemFromListIXT_EJiiiiEE4typeEv
FNDA:1,_ZNK7testing8internal13FlatTupleBaseINS0_9FlatTupleIJiiiiEEENS0_13IndexSequenceIJLm0ELm1ELm2ELm3EEEEE3GetILm3EEERKNS0_12ElemFromListIXT_EJiiiiEE4typeEv
FNDA:1,_ZN7testing8internal9FlatTupleIJiiiiEEC2IJiiiiEEENS0_21FlatTupleConstructTagEDpOT_
FNDA:8,_ZN7testing8internal9GetTypeIdI15TransactionTestEEPKvv
FNDA:6,_ZN7testing8internal9GetTypeIdI18AccountBalanceTestEEPKvv
FNDA:4,_ZN7testing8internal9GetTypeIdI20AccountBehaviourTestEEPKvv
FNDA:0,_ZN7testing8internal15TestFactoryBaseD0Ev
FNDA:17,_ZN7testing8internal15TestFactoryBaseD2Ev
FNDA:17,_ZN7testing8internal15TestFactoryBaseC2Ev
FNDA:1,_ZN7testing8internal15TestFactoryImplI27TransactionTest_SetFee_TestE10CreateTestEv
FNDA:1,_ZN7testing8internal15TestFactoryImplI29TransactionTest_TooSmall_TestE10CreateTestEv
FNDA:1,_ZN7testing8internal15TestFactoryImplI31TransactionTest_DefaultFee_TestE10CreateTestEv
FNDA:1,_ZN7testing8internal15TestFactoryImplI31TransactionTest_FeeExceeds_TestE10CreateTestEv
FNDA:1,_ZN7testing8internal15TestFactoryImplI31TransactionTest_Successful_TestE10CreateTestEv
FNDA:1,_ZN7testing8internal15TestFactoryImplI32TransactionTest_NegativeSum_TestE10CreateTestEv
FNDA:1,_ZN7testing8internal15TestFactoryImplI32TransactionTest_SameAccount_TestE10CreateTestEv
FNDA:1,_ZN7testing8internal15TestFactoryImplI35TransactionTest_NotEnoughFunds_TestE10CreateTestEv
FNDA:1,_ZN7testing8internal15TestFactoryImplI36AccountBehaviourTest_LockUnlock_TestE10CreateTestEv
FNDA:1,_ZN7testing8internal15TestFactoryImplI37AccountBehaviourTest_IdIsCorrect_TestE10CreateTestEv
FNDA:1,_ZN7testing8internal15TestFactoryImplI44RealTransaction_SaveToDataBaseExecution_TestE10CreateTestEv
FNDA:1,_ZN7testing8internal15TestFactoryImplI49AccountBehaviourTest_ChangeBalanceWhenLocked_TestE10CreateTestEv
FNDA:1,_ZN7testing8internal15TestFactoryImplI51AccountBehaviourTest_ChangeBalanceWhenUnlocked_TestE10CreateTestEv
FNDA:16,_ZN7testing8internal12CodeLocationC2ERKNSt7__cxx1112basic_stringIcSt11char_traitsIcESaIcEEEi
FNDA:68,_ZN7testing8internal19GetNotDefaultOrNullEPFvvES2_
FNDA:8,_ZN7testing8internal16SuiteApiResolverI15TransactionTestE19GetSetUpCaseOrSuiteEPKci
FNDA:4,_ZN7testing8internal16SuiteApiResolverI18AccountBalanceTestE19GetSetUpCaseOrSuiteEPKci
FNDA:4,_ZN7testing8internal16SuiteApiResolverI20AccountBehaviourTestE19GetSetUpCaseOrSuiteEPKci
FNDA:1,_ZN7testing8internal16SuiteApiResolverINS_4TestEE19GetSetUpCaseOrSuiteEPKci
FNDA:8,_ZN7testing8internal16SuiteApiResolverI15TransactionTestE22GetTearDownCaseOrSuiteEPKci
FNDA:4,_ZN7testing8internal16SuiteApiResolverI18AccountBalanceTestE22GetTearDownCaseOrSuiteEPKci
FNDA:4,_ZN7testing8internal16SuiteApiResolverI20AccountBehaviourTestE22GetTearDownCaseOrSuiteEPKci
FNDA:1,_ZN7testing8internal16SuiteApiResolverINS_4TestEE22GetTearDownCaseOrSuiteEPKci
FNDA:4,_ZN7testing8internal11AlwaysFalseEv
FNDA:8,_ZN7testing8internal14TrueWithStringC2Ev
FNDA:8,_ZNK7testing8internal14TrueWithStringcvbEv
FNF:42
FNH:41
DA:419,18
DA:424,18
DA:438,17
DA:445,17
DA:457,13
DA:478,16
DA:479,16
DA:491,68
DA:493,68
DA:506,17
DA:510,17
DA:512,17
DA:514,17
DA:517,0
DA:519,17
DA:527,17
DA:531,17
DA:533,17
DA:535,17
DA:538,0
DA:540,17
DA:829,4
DA:843,8
DA:846,8
DA:1217,4
DA:1218,4
DA:1231,1
DA:1233,1
DA:1236,4
DA:1237,4
DA:1275,1
DA:1276,1
LF:32
LH:30
end_of_record
TN:
SF:/home/ilyasov_ilya/ferdosiakrymskaa-svg/workspace/projects/lab05/lab05/third-party/gtest/googletest/include/gtest/internal/gtest-param-util.h
FN:100,100,_ZN7testing8internal22ParamIteratorInterfaceIiED0Ev
FN:100,100,_ZN7testing8internal22ParamIteratorInterfaceIiED2Ev
FN:141,141,_ZNK7testing8internal13ParamIteratorIiEdeEv
FN:144,147,_ZN7testing8internal13ParamIteratorIiEppEv
FN:154,156,_ZNK7testing8internal13ParamIteratorIiEeqERKS2_
FN:157,159,_ZNK7testing8internal13ParamIteratorIiEneERKS2_
FN:163,163,_ZN7testing8internal13ParamIteratorIiEC2EPNS0_22ParamIteratorInterfaceIiEE
FN:174,174,_ZN7testing8internal23ParamGeneratorInterfaceIiED0Ev
FN:174,174,_ZN7testing8internal23ParamGeneratorInterfaceIiED2Ev
FN:191,191,_ZN7testing8internal14ParamGeneratorIiEC2EPNS0_23ParamGeneratorInterfaceIiEE
FN:199,199,_ZNK7testing8internal14ParamGeneratorIiE5beginEv
FN:200,200,_ZNK7testing8internal14ParamGeneratorIiE3endEv
FN:300,301,_ZN7testing8internal30ValuesInIteratorRangeGeneratorIiEC2IN9__gnu_cxx17__normal_iteratorIPKiSt6vectorIiSaIiEEEEEET_SC_
FN:302,302,_ZN7testing8internal30ValuesInIteratorRangeGeneratorIiED0Ev
FN:302,302,_ZN7testing8internal30ValuesInIteratorRangeGeneratorIiED2Ev
FN:304,306,_ZNK7testing8internal30ValuesInIteratorRangeGeneratorIiE5BeginEv
FN:307,309,_ZNK7testing8internal30ValuesInIteratorRangeGeneratorIiE3EndEv
FN:316,318,_ZN7testing8internal30ValuesInIteratorRangeGeneratorIiE8IteratorC2EPKNS0_23ParamGeneratorInterfaceIiEEN9__gnu_cxx17__normal_iteratorIPKiSt6vectorIiSaIiEEEE
FN:319,319,_ZN7testing8internal30ValuesInIteratorRangeGeneratorIiE8IteratorD0Ev
FN:319,319,_ZN7testing8internal30ValuesInIteratorRangeGeneratorIiE8IteratorD2Ev
FN:321,323,_ZNK7testing8internal30ValuesInIteratorRangeGeneratorIiE8Iterator13BaseGeneratorEv
FN:324,327,_ZN7testing8internal30ValuesInIteratorRangeGeneratorIiE8Iterator7AdvanceEv
FN:328,330,_ZNK7testing8internal30ValuesInIteratorRangeGeneratorIiE8Iterator5CloneEv
FN:338,341,_ZNK7testing8internal30ValuesInIteratorRangeGeneratorIiE8Iterator7CurrentEv
FN:342,350,_ZNK7testing8internal30ValuesInIteratorRangeGeneratorIiE8Iterator6EqualsERKNS0_22ParamIteratorInterfaceIiEE
FN:353,358,_ZN7testing8internal30ValuesInIteratorRangeGeneratorIiE8IteratorC2ERKS3_
FN:381,385,_ZN7testing8internal16DefaultParamNameIiEENSt7__cxx1112basic_stringIcSt11char_traitsIcESaIcEEERKNS_13TestParamInfoIT_EE
FN:392,392,_ZN7testing8internal12TestNotEmptyIFNSt7__cxx1112basic_stringIcSt11char_traitsIcESaIcEEERKNS_13TestParamInfoIiEEEEEvRKT_
FN:402,403,_ZN7testing8internal24ParameterizedTestFactoryI38AccountBalanceTest_InitialBalance_TestEC2Ei
FN:404,407,_ZN7testing8internal24ParameterizedTestFactoryI38AccountBalanceTest_InitialBalance_TestE10CreateTestEv
FN:423,423,_ZN7testing8internal19TestMetaFactoryBaseIiED0Ev
FN:423,423,_ZN7testing8internal19TestMetaFactoryBaseIiED2Ev
FN:442,442,_ZN7testing8internal15TestMetaFactoryI38AccountBalanceTest_InitialBalance_TestEC2Ev
FN:444,446,_ZN7testing8internal15TestMetaFactoryI38AccountBalanceTest_InitialBalance_TestE17CreateTestFactoryEi
FN:465,465,_ZN7testing8internal30ParameterizedTestSuiteInfoBaseD0Ev
FN:465,465,_ZN7testing8internal30ParameterizedTestSuiteInfoBaseD2Ev
FN:478,478,_ZN7testing8internal30ParameterizedTestSuiteInfoBaseC2Ev
FN:516,518,_ZN7testing8internal26ParameterizedTestSuiteInfoI18AccountBalanceTestEC2EPKcNS0_12CodeLocationE
FN:521,523,_ZNK7testing8internal26ParameterizedTestSuiteInfoI18AccountBalanceTestE16GetTestSuiteNameB5cxx11Ev
FN:525,525,_ZNK7testing8internal26ParameterizedTestSuiteInfoI18AccountBalanceTestE18GetTestSuiteTypeIdEv
FN:532,537,_ZN7testing8internal26ParameterizedTestSuiteInfoI18AccountBalanceTestE14AddTestPatternEPKcS5_PNS0_19TestMetaFactoryBaseIiEENS0_12CodeLocationE
FN:540,547,_ZN7testing8internal26ParameterizedTestSuiteInfoI18AccountBalanceTestE25AddTestSuiteInstantiationERKNSt7__cxx1112basic_stringIcSt11char_traitsIcESaIcEEEPFNS0_14ParamGeneratorIiEEvEPFS9_RKNS_13TestParamInfoIiEEEPKci
FN:553,616,_ZN7testing8internal26ParameterizedTestSuiteInfoI18AccountBalanceTestE13RegisterTestsEv
FN:622,628,_ZN7testing8internal26ParameterizedTestSuiteInfoI18AccountBalanceTestE8TestInfoC2EPKcS6_PNS0_19TestMetaFactoryBaseIiEENS0_12CodeLocationE
FN:63,64,_ZN7testing13TestParamInfoIiEC2ERKim
FN:640,648,_ZN7testing8internal26ParameterizedTestSuiteInfoI18AccountBalanceTestE17InstantiationInfoC2ERKNSt7__cxx1112basic_stringIcSt11char_traitsIcESaIcEEEPFNS0_14ParamGeneratorIiEEvEPFSA_RKNS_13TestParamInfoIiEEEPKci
FN:658,668,_ZN7testing8internal26ParameterizedTestSuiteInfoI18AccountBalanceTestE16IsValidParamNameERKNSt7__cxx1112basic_stringIcSt11char_traitsIcESaIcEEE
FN:704,731,_ZN7testing8internal30ParameterizedTestSuiteRegistry25GetTestSuitePatternHolderI18AccountBalanceTestEEPNS0_26ParameterizedTestSuiteInfoIT_EEPKcNS0_12CodeLocationE
FN:802,802,_ZN7testing8internal10ValueArrayIJiiiiEEC2Eiiii
FN:805,807,_ZNK7testing8internal10ValueArrayIJiiiiEEcvNS0_14ParamGeneratorIT_EEIiEEv
FN:811,813,_ZNK7testing8internal10ValueArrayIJiiiiEE10MakeVectorIiJLm0ELm1ELm2ELm3EEEESt6vectorIT_SaIS5_EENS0_13IndexSequenceIJXspT0_EEEE
FNDA:0,_ZN7testing8internal22ParamIteratorInterfaceIiED0Ev
FNDA:6,_ZN7testing8internal22ParamIteratorInterfaceIiED2Ev
FNDA:12,_ZNK7testing8internal13ParamIteratorIiEdeEv
FNDA:4,_ZN7testing8internal13ParamIteratorIiEppEv
FNDA:5,_ZNK7testing8internal13ParamIteratorIiEeqERKS2_
FNDA:5,_ZNK7testing8internal13ParamIteratorIiEneERKS2_
FNDA:6,_ZN7testing8internal13ParamIteratorIiEC2EPNS0_22ParamIteratorInterfaceIiEE
FNDA:0,_ZN7testing8internal23ParamGeneratorInterfaceIiED0Ev
FNDA:1,_ZN7testing8internal23ParamGeneratorInterfaceIiED2Ev
FNDA:1,_ZN7testing8internal14ParamGeneratorIiEC2EPNS0_23ParamGeneratorInterfaceIiEE
FNDA:1,_ZNK7testing8internal14ParamGeneratorIiE5beginEv
FNDA:5,_ZNK7testing8internal14ParamGeneratorIiE3endEv
FNDA:1,_ZN7testing8internal30ValuesInIteratorRangeGeneratorIiEC2IN9__gnu_cxx17__normal_iteratorIPKiSt6vectorIiSaIiEEEEEET_SC_
FNDA:1,_ZN7testing8internal30ValuesInIteratorRangeGeneratorIiED0Ev
FNDA:1,_ZN7testing8internal30ValuesInIteratorRangeGeneratorIiED2Ev
FNDA:1,_ZNK7testing8internal30ValuesInIteratorRangeGeneratorIiE5BeginEv
FNDA:5,_ZNK7testing8internal30ValuesInIteratorRangeGeneratorIiE3EndEv
FNDA:6,_ZN7testing8internal30ValuesInIteratorRangeGeneratorIiE8IteratorC2EPKNS0_23ParamGeneratorInterfaceIiEEN9__gnu_cxx17__normal_iteratorIPKiSt6vectorIiSaIiEEEE
FNDA:6,_ZN7testing8internal30ValuesInIteratorRangeGeneratorIiE8IteratorD0Ev
FNDA:6,_ZN7testing8internal30ValuesInIteratorRangeGeneratorIiE8IteratorD2Ev
FNDA:10,_ZNK7testing8internal30ValuesInIteratorRangeGeneratorIiE8Iterator13BaseGeneratorEv
FNDA:4,_ZN7testing8internal30ValuesInIteratorRangeGeneratorIiE8Iterator7AdvanceEv
FNDA:0,_ZNK7testing8internal30ValuesInIteratorRangeGeneratorIiE8Iterator5CloneEv
FNDA:12,_ZNK7testing8internal30ValuesInIteratorRangeGeneratorIiE8Iterator7CurrentEv
FNDA:5,_ZNK7testing8internal30ValuesInIteratorRangeGeneratorIiE8Iterator6EqualsERKNS0_22ParamIteratorInterfaceIiEE
FNDA:0,_ZN7testing8internal30ValuesInIteratorRangeGeneratorIiE8IteratorC2ERKS3_
FNDA:4,_ZN7testing8internal16DefaultParamNameIiEENSt7__cxx1112basic_stringIcSt11char_traitsIcESaIcEEERKNS_13TestParamInfoIT_EE
FNDA:0,_ZN7testing8internal12TestNotEmptyIFNSt7__cxx1112basic_stringIcSt11char_traitsIcESaIcEEERKNS_13TestParamInfoIiEEEEEvRKT_
FNDA:4,_ZN7testing8internal24ParameterizedTestFactoryI38AccountBalanceTest_InitialBalance_TestEC2Ei
FNDA:4,_ZN7testing8internal24ParameterizedTestFactoryI38AccountBalanceTest_InitialBalance_TestE10CreateTestEv
FNDA:0,_ZN7testing8internal19TestMetaFactoryBaseIiED0Ev
FNDA:1,_ZN7testing8internal19TestMetaFactoryBaseIiED2Ev
FNDA:1,_ZN7testing8internal15TestMetaFactoryI38AccountBalanceTest_InitialBalance_TestEC2Ev
FNDA:4,_ZN7testing8internal15TestMetaFactoryI38AccountBalanceTest_InitialBalance_TestE17CreateTestFactoryEi
FNDA:0,_ZN7testing8internal30ParameterizedTestSuiteInfoBaseD0Ev
FNDA:1,_ZN7testing8internal30ParameterizedTestSuiteInfoBaseD2Ev
FNDA:1,_ZN7testing8internal30ParameterizedTestSuiteInfoBaseC2Ev
FNDA:1,_ZN7testing8internal26ParameterizedTestSuiteInfoI18AccountBalanceTestEC2EPKcNS0_12CodeLocationE
FNDA:1,_ZNK7testing8internal26ParameterizedTestSuiteInfoI18AccountBalanceTestE16GetTestSuiteNameB5cxx11Ev
FNDA:5,_ZNK7testing8internal26ParameterizedTestSuiteInfoI18AccountBalanceTestE18GetTestSuiteTypeIdEv
FNDA:1,_ZN7testing8internal26ParameterizedTestSuiteInfoI18AccountBalanceTestE14AddTestPatternEPKcS5_PNS0_19TestMetaFactoryBaseIiEENS0_12CodeLocationE
FNDA:1,_ZN7testing8internal26ParameterizedTestSuiteInfoI18AccountBalanceTestE25AddTestSuiteInstantiationERKNSt7__cxx1112basic_stringIcSt11char_traitsIcESaIcEEEPFNS0_14ParamGeneratorIiEEvEPFS9_RKNS_13TestParamInfoIiEEEPKci
FNDA:1,_ZN7testing8internal26ParameterizedTestSuiteInfoI18AccountBalanceTestE13RegisterTestsEv
FNDA:1,_ZN7testing8internal26ParameterizedTestSuiteInfoI18AccountBalanceTestE8TestInfoC2EPKcS6_PNS0_19TestMetaFactoryBaseIiEENS0_12CodeLocationE
FNDA:4,_ZN7testing13TestParamInfoIiEC2ERKim
FNDA:1,_ZN7testing8internal26ParameterizedTestSuiteInfoI18AccountBalanceTestE17InstantiationInfoC2ERKNSt7__cxx1112basic_stringIcSt11char_traitsIcESaIcEEEPFNS0_14ParamGeneratorIiEEvEPFSA_RKNS_13TestParamInfoIiEEEPKci
FNDA:4,_ZN7testing8internal26ParameterizedTestSuiteInfoI18AccountBalanceTestE16IsValidParamNameERKNSt7__cxx1112basic_stringIcSt11char_traitsIcESaIcEEE
FNDA:2,_ZN7testing8internal30ParameterizedTestSuiteRegistry25GetTestSuitePatternHolderI18AccountBalanceTestEEPNS0_26ParameterizedTestSuiteInfoIT_EEPKcNS0_12CodeLocationE
FNDA:1,_ZN7testing8internal10ValueArrayIJiiiiEEC2Eiiii
FNDA:1,_ZNK7testing8internal10ValueArrayIJiiiiEEcvNS0_14ParamGeneratorIT_EEIiEEv
FNDA:1,_ZNK7testing8internal10ValueArrayIJiiiiEE10MakeVectorIiJLm0ELm1ELm2ELm3EEEESt6vectorIT_SaIS5_EENS0_13IndexSequenceIJXspT0_EEEE
FNF:51
FNH:44
DA:63,4
DA:64,4
DA:100,6
DA:141,12
DA:144,4
DA:145,4
DA:146,4
DA:154,5
DA:155,5
DA:157,5
DA:158,5
DA:163,6
DA:174,1
DA:191,1
DA:199,1
DA:200,5
DA:300,1
DA:301,3
DA:302,2
DA:304,1
DA:305,1
DA:307,5
DA:308,5
DA:316,6
DA:318,6
DA:319,12
DA:321,10
DA:322,10
DA:324,4
DA:325,4
DA:326,4
DA:327,4
DA:328,0
DA:329,0
DA:338,12
DA:339,12
DA:340,12
DA:342,5
DA:345,5
DA:347,0
DA:348,5
DA:349,5
DA:353,0
DA:357,0
DA:358,0
DA:381,4
DA:382,4
DA:383,4
DA:384,8
DA:385,4
DA:392,0
DA:402,4
DA:403,4
DA:404,4
DA:405,4
DA:406,4
DA:423,1
DA:442,1
DA:444,4
DA:445,4
DA:465,1
DA:478,1
DA:516,1
DA:518,3
DA:521,1
DA:522,1
DA:525,5
DA:532,1
DA:535,1
DA:537,1
DA:540,1
DA:544,1
DA:545,2
DA:546,1
DA:553,1
DA:554,1
DA:556,2
DA:557,2
DA:558,1
DA:559,2
DA:560,1
DA:561,2
DA:562,1
DA:563,1
DA:564,1
DA:565,1
DA:566,1
DA:568,1
DA:569,1
DA:570,1
DA:571,1
DA:573,1
DA:574,1
DA:575,10
DA:577,9
DA:578,4
DA:580,4
DA:582,4
DA:583,4
DA:585,4
DA:587,0
DA:589,4
DA:591,0
DA:593,4
DA:595,4
DA:596,4
DA:598,4
DA:599,8
DA:602,4
DA:603,4
DA:606,4
DA:611,1
DA:613,0
DA:614,0
DA:616,1
DA:622,1
DA:625,2
DA:626,2
DA:627,1
DA:628,1
DA:640,1
DA:644,1
DA:645,1
DA:646,1
DA:647,1
DA:648,1
DA:658,4
DA:660,4
DA:663,8
DA:664,4
DA:667,4
DA:704,2
DA:706,2
DA:707,2
DA:708,1
DA:709,1
DA:713,0
DA:714,0
DA:720,1
DA:722,1
DA:725,2
DA:726,1
DA:728,1
DA:730,2
DA:802,1
DA:805,1
DA:806,1
DA:811,1
DA:812,3
LF:149
LH:136
end_of_record
TN:
SF:/home/ilyasov_ilya/ferdosiakrymskaa-svg/workspace/projects/lab05/lab05/third-party/gtest/googletest/include/gtest/internal/gtest-port.h
FN:1042,1042,_ZN7testing8internal8GTestLog9GetStreamEv
FN:1140,1142,_ZN7testing8internal13ImplicitCast_IiEET_S2_
FN:1150,1157,_ZN7testing8internal27CheckedDowncastToActualTypeIKNS0_30ValuesInIteratorRangeGeneratorIiE8IteratorEKNS0_22ParamIteratorInterfaceIiEEEEPT_PT0_
FN:1150,1157,_ZN7testing8internal27CheckedDowncastToActualTypeINS0_11ThreadLocalIPNS_8SequenceEE11ValueHolderENS0_26ThreadLocalValueHolderBaseEEEPT_PT0_
FN:1150,1157,_ZN7testing8internal27CheckedDowncastToActualTypeINS0_26ParameterizedTestSuiteInfoI18AccountBalanceTestEENS0_30ParameterizedTestSuiteInfoBaseEEEPT_PT0_
FN:1649,1653,_ZN7testing8internal9MutexBase4LockEv
FN:1656,1663,_ZN7testing8internal9MutexBase6UnlockEv
FN:1667,1670,_ZNK7testing8internal9MutexBase10AssertHeldEv
FN:1724,1724,_ZN7testing8internal14GTestMutexLockC2EPNS0_9MutexBaseE
FN:1726,1726,_ZN7testing8internal14GTestMutexLockD2Ev
FN:1774,1774,_ZNK7testing8internal11ThreadLocalIPNS_8SequenceEE7pointerEv
FN:1775,1775,_ZNK7testing8internal11ThreadLocalIPNS_8SequenceEE3getEv
FN:1785,1785,_ZN7testing8internal11ThreadLocalIPNS_8SequenceEE11ValueHolder7pointerEv
FN:1802,1813,_ZNK7testing8internal11ThreadLocalIPNS_8SequenceEE16GetOrCreateValueEv
FN:1932,1934,_ZN7testing8internal7IsAlNumEc
FN:2147,2147,_ZN7testing8internal5posix5AbortEv
FNDA:0,_ZN7testing8internal8GTestLog9GetStreamEv
FNDA:2,_ZN7testing8internal13ImplicitCast_IiEET_S2_
FNDA:5,_ZN7testing8internal27CheckedDowncastToActualTypeIKNS0_30ValuesInIteratorRangeGeneratorIiE8IteratorEKNS0_22ParamIteratorInterfaceIiEEEEPT_PT0_
FNDA:24,_ZN7testing8internal27CheckedDowncastToActualTypeINS0_11ThreadLocalIPNS_8SequenceEE11ValueHolderENS0_26ThreadLocalValueHolderBaseEEEPT_PT0_
FNDA:1,_ZN7testing8internal27CheckedDowncastToActualTypeINS0_26ParameterizedTestSuiteInfoI18AccountBalanceTestEENS0_30ParameterizedTestSuiteInfoBaseEEEPT_PT0_
FNDA:407,_ZN7testing8internal9MutexBase4LockEv
FNDA:407,_ZN7testing8internal9MutexBase6UnlockEv
FNDA:542,_ZNK7testing8internal9MutexBase10AssertHeldEv
FNDA:263,_ZN7testing8internal14GTestMutexLockC2EPNS0_9MutexBaseE
FNDA:263,_ZN7testing8internal14GTestMutexLockD2Ev
FNDA:21,_ZNK7testing8internal11ThreadLocalIPNS_8SequenceEE7pointerEv
FNDA:21,_ZNK7testing8internal11ThreadLocalIPNS_8SequenceEE3getEv
FNDA:25,_ZN7testing8internal11ThreadLocalIPNS_8SequenceEE11ValueHolder7pointerEv
FNDA:25,_ZNK7testing8internal11ThreadLocalIPNS_8SequenceEE16GetOrCreateValueEv
FNDA:4,_ZN7testing8internal7IsAlNumEc
FNDA:0,_ZN7testing8internal5posix5AbortEv
FNF:16
FNH:14
DA:1042,0
DA:1140,2
DA:1141,2
DA:1150,30
DA:1154,30
DA:1156,30
DA:1649,407
DA:1650,407
DA:1651,407
DA:1652,407
DA:1653,407
DA:1656,407
DA:1661,407
DA:1662,407
DA:1663,407
DA:1667,542
DA:1668,542
DA:1669,0
DA:1670,542
DA:1724,263
DA:1726,263
DA:1774,21
DA:1775,21
DA:1785,25
DA:1802,25
DA:1804,25
DA:1805,25
DA:1806,24
DA:1809,1
DA:1810,1
DA:1811,1
DA:1812,1
DA:1932,4
DA:1933,4
DA:2147,0
LF:35
LH:32
end_of_record
TN:
SF:/home/ilyasov_ilya/ferdosiakrymskaa-svg/workspace/projects/lab05/lab05/third-party/gtest/googletest/include/gtest/internal/gtest-type-util.h
FN:61,87,_ZN7testing8internal31CanonicalizeForStdLibVersioningENSt7__cxx1112basic_stringIcSt11char_traitsIcESaIcEEE
FN:91,121,_ZN7testing8internal11GetTypeNameB5cxx11ERKSt9type_info
FNDA:0,_ZN7testing8internal31CanonicalizeForStdLibVersioningENSt7__cxx1112basic_stringIcSt11char_traitsIcESaIcEEE
FNDA:0,_ZN7testing8internal11GetTypeNameB5cxx11ERKSt9type_info
FNF:2
FNH:0
DA:61,0
DA:63,0
DA:64,0
DA:65,0
DA:67,0
DA:75,0
DA:78,0
DA:79,0
DA:80,0
DA:83,0
DA:84,0
DA:86,0
DA:91,0
DA:92,0
DA:94,0
DA:100,0
DA:101,0
DA:102,0
DA:103,0
DA:121,0
LF:20
LH:0
end_of_record
TN:
SF:/usr/include/c++/13/bits/alloc_traits.h
FNF:0
FNH:0
DA:482,46
DA:517,60
DA:538,27
DA:542,27
DA:562,19
DA:574,74
DA:588,66
DA:661,4
DA:675,4
DA:773,72
DA:790,72
DA:792,72
DA:948,170
DA:949,170
LF:14
LH:14
end_of_record
TN:
SF:/usr/include/c++/13/bits/allocated_ptr.h
FN:53,55,_ZNSt15__allocated_ptrISaISt23_Sp_counted_ptr_inplaceIN7testing10OnceActionIFivEEESaIvELN9__gnu_cxx12_Lock_policyE2EEEEC2ERS9_PS8_
FN:53,55,_ZNSt15__allocated_ptrISaISt23_Sp_counted_ptr_inplaceIN7testing8internal12ReturnActionIiE4ImplIiEESaIvELN9__gnu_cxx12_Lock_policyE2EEEEC2ERSB_PSA_
FN:71,75,_ZNSt15__allocated_ptrISaISt23_Sp_counted_ptr_inplaceIN7testing10OnceActionIFivEEESaIvELN9__gnu_cxx12_Lock_policyE2EEEED2Ev
FN:71,75,_ZNSt15__allocated_ptrISaISt23_Sp_counted_ptr_inplaceIN7testing8internal12ReturnActionIiE4ImplIiEESaIvELN9__gnu_cxx12_Lock_policyE2EEEED2Ev
FN:79,83,_ZNSt15__allocated_ptrISaISt23_Sp_counted_ptr_inplaceIN7testing10OnceActionIFivEEESaIvELN9__gnu_cxx12_Lock_policyE2EEEEaSEDn
FN:79,83,_ZNSt15__allocated_ptrISaISt23_Sp_counted_ptr_inplaceIN7testing8internal12ReturnActionIiE4ImplIiEESaIvELN9__gnu_cxx12_Lock_policyE2EEEEaSEDn
FN:86,86,_ZNSt15__allocated_ptrISaISt23_Sp_counted_ptr_inplaceIN7testing10OnceActionIFivEEESaIvELN9__gnu_cxx12_Lock_policyE2EEEE3getEv
FN:86,86,_ZNSt15__allocated_ptrISaISt23_Sp_counted_ptr_inplaceIN7testing8internal12ReturnActionIiE4ImplIiEESaIvELN9__gnu_cxx12_Lock_policyE2EEEE3getEv
FN:96,99,_ZSt18__allocate_guardedISaISt23_Sp_counted_ptr_inplaceIN7testing10OnceActionIFivEEESaIvELN9__gnu_cxx12_Lock_policyE2EEEESt15__allocated_ptrIT_ERSB_
FN:96,99,_ZSt18__allocate_guardedISaISt23_Sp_counted_ptr_inplaceIN7testing8internal12ReturnActionIiE4ImplIiEESaIvELN9__gnu_cxx12_Lock_policyE2EEEESt15__allocated_ptrIT_ERSD_
FNDA:4,_ZNSt15__allocated_ptrISaISt23_Sp_counted_ptr_inplaceIN7testing10OnceActionIFivEEESaIvELN9__gnu_cxx12_Lock_policyE2EEEEC2ERS9_PS8_
FNDA:4,_ZNSt15__allocated_ptrISaISt23_Sp_counted_ptr_inplaceIN7testing8internal12ReturnActionIiE4ImplIiEESaIvELN9__gnu_cxx12_Lock_policyE2EEEEC2ERSB_PSA_
FNDA:4,_ZNSt15__allocated_ptrISaISt23_Sp_counted_ptr_inplaceIN7testing10OnceActionIFivEEESaIvELN9__gnu_cxx12_Lock_policyE2EEEED2Ev
FNDA:4,_ZNSt15__allocated_ptrISaISt23_Sp_counted_ptr_inplaceIN7testing8internal12ReturnActionIiE4ImplIiEESaIvELN9__gnu_cxx12_Lock_policyE2EEEED2Ev
FNDA:2,_ZNSt15__allocated_ptrISaISt23_Sp_counted_ptr_inplaceIN7testing10OnceActionIFivEEESaIvELN9__gnu_cxx12_Lock_policyE2EEEEaSEDn
FNDA:2,_ZNSt15__allocated_ptrISaISt23_Sp_counted_ptr_inplaceIN7testing8internal12ReturnActionIiE4ImplIiEESaIvELN9__gnu_cxx12_Lock_policyE2EEEEaSEDn
FNDA:2,_ZNSt15__allocated_ptrISaISt23_Sp_counted_ptr_inplaceIN7testing10OnceActionIFivEEESaIvELN9__gnu_cxx12_Lock_policyE2EEEE3getEv
FNDA:2,_ZNSt15__allocated_ptrISaISt23_Sp_counted_ptr_inplaceIN7testing8internal12ReturnActionIiE4ImplIiEESaIvELN9__gnu_cxx12_Lock_policyE2EEEE3getEv
FNDA:2,_ZSt18__allocate_guardedISaISt23_Sp_counted_ptr_inplaceIN7testing10OnceActionIFivEEESaIvELN9__gnu_cxx12_Lock_policyE2EEEESt15__allocated_ptrIT_ERSB_
FNDA:2,_ZSt18__allocate_guardedISaISt23_Sp_counted_ptr_inplaceIN7testing8internal12ReturnActionIiE4ImplIiEESaIvELN9__gnu_cxx12_Lock_policyE2EEEESt15__allocated_ptrIT_ERSD_
FNF:10
FNH:10
DA:53,8
DA:54,8
DA:55,8
DA:71,8
DA:73,8
DA:74,4
DA:75,8
DA:79,4
DA:81,4
DA:82,4
DA:86,4
DA:96,4
DA:98,4
LF:13
LH:13
end_of_record
TN:
SF:/usr/include/c++/13/bits/allocator.h
FNF:0
FNH:0
DA:163,240
DA:168,70
DA:178,8
DA:184,200
DA:217,0
LF:5
LH:4
end_of_record
TN:
SF:/usr/include/c++/13/bits/atomic_base.h
FNF:0
FNH:0
DA:635,0
DA:645,0
LF:2
LH:0
end_of_record
TN:
SF:/usr/include/c++/13/bits/basic_string.h
FN:3528,3541,_ZSt12__str_concatINSt7__cxx1112basic_stringIcSt11char_traitsIcESaIcEEEET_PKNS6_10value_typeENS6_9size_typeES9_SA_RKNS6_14allocator_typeE
FN:3571,3579,_ZStplIcSt11char_traitsIcESaIcEENSt7__cxx1112basic_stringIT_T0_T1_EEPKS5_RKS8_
FN:3607,3615,_ZStplIcSt11char_traitsIcESaIcEENSt7__cxx1112basic_stringIT_T0_T1_EERKS8_PKS5_
FN:3651,3669,_ZStplIcSt11char_traitsIcESaIcEENSt7__cxx1112basic_stringIT_T0_T1_EEOS8_S9_
FN:3674,3676,_ZStplIcSt11char_traitsIcESaIcEENSt7__cxx1112basic_stringIT_T0_T1_EEPKS5_OS8_
FN:3688,3690,_ZStplIcSt11char_traitsIcESaIcEENSt7__cxx1112basic_stringIT_T0_T1_EEOS8_PKS5_
FN:3727,3732,_ZSteqIcSt11char_traitsIcESaIcEEbRKNSt7__cxx1112basic_stringIT_T0_T1_EEPKS5_
FN:3829,3832,_ZStltIcSt11char_traitsIcESaIcEEbRKNSt7__cxx1112basic_stringIT_T0_T1_EESA_
FNDA:66,_ZSt12__str_concatINSt7__cxx1112basic_stringIcSt11char_traitsIcESaIcEEEET_PKNS6_10value_typeENS6_9size_typeES9_SA_RKNS6_14allocator_typeE
FNDA:0,_ZStplIcSt11char_traitsIcESaIcEENSt7__cxx1112basic_stringIT_T0_T1_EEPKS5_RKS8_
FNDA:66,_ZStplIcSt11char_traitsIcESaIcEENSt7__cxx1112basic_stringIT_T0_T1_EERKS8_PKS5_
FNDA:17,_ZStplIcSt11char_traitsIcESaIcEENSt7__cxx1112basic_stringIT_T0_T1_EEOS8_S9_
FNDA:0,_ZStplIcSt11char_traitsIcESaIcEENSt7__cxx1112basic_stringIT_T0_T1_EEPKS5_OS8_
FNDA:111,_ZStplIcSt11char_traitsIcESaIcEENSt7__cxx1112basic_stringIT_T0_T1_EEOS8_PKS5_
FNDA:69,_ZSteqIcSt11char_traitsIcESaIcEEbRKNSt7__cxx1112basic_stringIT_T0_T1_EEPKS5_
FNDA:16,_ZStltIcSt11char_traitsIcESaIcEEbRKNSt7__cxx1112basic_stringIT_T0_T1_EESA_
FNF:8
FNH:6
DA:355,0
DA:3528,66
DA:3536,66
DA:3537,66
DA:3538,66
DA:3539,66
DA:3540,66
DA:3541,0
DA:3571,0
DA:3578,0
DA:3607,66
DA:3614,132
DA:3651,17
DA:3656,17
DA:3657,17
DA:3658,17
DA:3659,0
DA:3660,0
DA:3661,17
DA:3664,17
DA:3665,17
DA:3666,0
DA:3668,17
DA:3674,0
DA:3676,0
DA:3688,111
DA:3690,111
DA:3727,69
DA:3730,69
DA:3731,69
DA:3829,16
DA:3832,16
LF:32
LH:23
end_of_record
TN:
SF:/usr/include/c++/13/bits/basic_string.tcc
FN:221,252,_ZNSt7__cxx1112basic_stringIcSt11char_traitsIcESaIcEE12_M_constructIPKcEEvT_S8_St20forward_iterator_tag
FN:221,252,_ZNSt7__cxx1112basic_stringIcSt11char_traitsIcESaIcEE12_M_constructIPcEEvT_S7_St20forward_iterator_tag
FN:239,239,_ZZNSt7__cxx1112basic_stringIcSt11char_traitsIcESaIcEE12_M_constructIPKcEEvT_S8_St20forward_iterator_tagEN6_GuardC2EPS4_
FN:239,239,_ZZNSt7__cxx1112basic_stringIcSt11char_traitsIcESaIcEE12_M_constructIPcEEvT_S7_St20forward_iterator_tagEN6_GuardC2EPS4_
FN:242,242,_ZZNSt7__cxx1112basic_stringIcSt11char_traitsIcESaIcEE12_M_constructIPKcEEvT_S8_St20forward_iterator_tagEN6_GuardD2Ev
FN:242,242,_ZZNSt7__cxx1112basic_stringIcSt11char_traitsIcESaIcEE12_M_constructIPcEEvT_S7_St20forward_iterator_tagEN6_GuardD2Ev
FNDA:0,_ZNSt7__cxx1112basic_stringIcSt11char_traitsIcESaIcEE12_M_constructIPKcEEvT_S8_St20forward_iterator_tag
FNDA:0,_ZNSt7__cxx1112basic_stringIcSt11char_traitsIcESaIcEE12_M_constructIPcEEvT_S7_St20forward_iterator_tag
FNDA:0,_ZZNSt7__cxx1112basic_stringIcSt11char_traitsIcESaIcEE12_M_constructIPKcEEvT_S8_St20forward_iterator_tagEN6_GuardC2EPS4_
FNDA:0,_ZZNSt7__cxx1112basic_stringIcSt11char_traitsIcESaIcEE12_M_constructIPcEEvT_S7_St20forward_iterator_tagEN6_GuardC2EPS4_
FNDA:0,_ZZNSt7__cxx1112basic_stringIcSt11char_traitsIcESaIcEE12_M_constructIPKcEEvT_S8_St20forward_iterator_tagEN6_GuardD2Ev
FNDA:0,_ZZNSt7__cxx1112basic_stringIcSt11char_traitsIcESaIcEE12_M_constructIPcEEvT_S7_St20forward_iterator_tagEN6_GuardD2Ev
FNF:6
FNH:0
DA:221,0
DA:225,0
DA:227,0
DA:229,0
DA:230,0
DA:239,0
DA:242,0
DA:245,0
DA:247,0
DA:249,0
DA:251,0
DA:252,0
LF:12
LH:0
end_of_record
TN:
SF:/usr/include/c++/13/bits/char_traits.h
FN:374,390,_ZNSt11char_traitsIcE7compareEPKcS2_m
FN:393,400,_ZNSt11char_traitsIcE6lengthEPKc
FN:427,436,_ZNSt11char_traitsIcE4copyEPcPKcm
FNDA:1,_ZNSt11char_traitsIcE7compareEPKcS2_m
FNDA:135,_ZNSt11char_traitsIcE6lengthEPKc
FNDA:0,_ZNSt11char_traitsIcE4copyEPcPKcm
FNF:3
FNH:2
DA:374,1
DA:376,1
DA:377,0
DA:389,1
DA:393,135
DA:399,135
DA:427,0
DA:429,0
DA:430,0
DA:435,0
LF:10
LH:5
end_of_record
TN:
SF:/usr/include/c++/13/bits/cpp_type_traits.h
FN:607,608,_ZSt12__miter_baseIN9__gnu_cxx17__normal_iteratorIPKiSt6vectorIiSaIiEEEEET_S8_
FN:607,608,_ZSt12__miter_baseIPKiET_S2_
FN:607,608,_ZSt12__miter_baseIPPKvET_S3_
FN:607,608,_ZSt12__miter_baseIPPN7testing8internal30ParameterizedTestSuiteInfoBaseEET_S5_
FNDA:2,_ZSt12__miter_baseIN9__gnu_cxx17__normal_iteratorIPKiSt6vectorIiSaIiEEEEET_S8_
FNDA:2,_ZSt12__miter_baseIPKiET_S2_
FNDA:0,_ZSt12__miter_baseIPPKvET_S3_
FNDA:0,_ZSt12__miter_baseIPPN7testing8internal30ParameterizedTestSuiteInfoBaseEET_S5_
FNF:4
FNH:2
DA:607,4
DA:608,4
LF:2
LH:2
end_of_record
TN:
SF:/usr/include/c++/13/bits/invoke.h
FN:129,140,_ZSt10__invoke_rIiRN7testing10OnceActionIFivEE18StdFunctionAdaptorINS0_8internal12ReturnActionIiE4ImplIiEEEEJEENSt9enable_ifIXntsrSt7is_voidIT_E5valueESE_E4typeEOT0_DpOT1_
FN:129,140,_ZSt10__invoke_rIiRN7testing8internal16TypedExpectationIFivEE13ActionAdaptorEJEENSt9enable_ifIXntsrSt7is_voidIT_E5valueES9_E4typeEOT0_DpOT1_
FN:60,61,_ZSt13__invoke_implIiRN7testing10OnceActionIFivEE18StdFunctionAdaptorINS0_8internal12ReturnActionIiE4ImplIiEEEEJEET_St14__invoke_otherOT0_DpOT1_
FN:60,61,_ZSt13__invoke_implIiRN7testing8internal16TypedExpectationIFivEE13ActionAdaptorEJEET_St14__invoke_otherOT0_DpOT1_
FNDA:2,_ZSt10__invoke_rIiRN7testing10OnceActionIFivEE18StdFunctionAdaptorINS0_8internal12ReturnActionIiE4ImplIiEEEEJEENSt9enable_ifIXntsrSt7is_voidIT_E5valueESE_E4typeEOT0_DpOT1_
FNDA:2,_ZSt10__invoke_rIiRN7testing8internal16TypedExpectationIFivEE13ActionAdaptorEJEENSt9enable_ifIXntsrSt7is_voidIT_E5valueES9_E4typeEOT0_DpOT1_
FNDA:2,_ZSt13__invoke_implIiRN7testing10OnceActionIFivEE18StdFunctionAdaptorINS0_8internal12ReturnActionIiE4ImplIiEEEEJEET_St14__invoke_otherOT0_DpOT1_
FNDA:2,_ZSt13__invoke_implIiRN7testing8internal16TypedExpectationIFivEE13ActionAdaptorEJEET_St14__invoke_otherOT0_DpOT1_
FNF:4
FNH:4
DA:60,4
DA:61,4
DA:129,4
DA:138,4
DA:139,4
LF:5
LH:5
end_of_record
TN:
SF:/usr/include/c++/13/bits/move.h
FN:138,139,_ZSt9addressofIK7AccountEPT_RS2_
FN:189,200,_ZSt4swapIPFbRSt9_Any_dataRKS0_St18_Manager_operationEENSt9enable_ifIXsrSt6__and_IJSt6__not_ISt15__is_tuple_likeIT_EESt21is_move_constructibleISB_ESt18is_move_assignableISB_EEE5valueEvE4typeERSB_SL_
FN:189,200,_ZSt4swapIPFiRKSt9_Any_dataEENSt9enable_ifIXsrSt6__and_IJSt6__not_ISt15__is_tuple_likeIT_EESt21is_move_constructibleIS9_ESt18is_move_assignableIS9_EEE5valueEvE4typeERS9_SJ_
FN:189,200,_ZSt4swapISt9_Any_dataENSt9enable_ifIXsrSt6__and_IJSt6__not_ISt15__is_tuple_likeIT_EESt21is_move_constructibleIS5_ESt18is_move_assignableIS5_EEE5valueEvE4typeERS5_SF_
FN:51,52,_ZSt11__addressofIK7AccountEPT_RS2_
FN:51,52,_ZSt11__addressofIN7testing8internal26ParameterizedTestSuiteInfoI18AccountBalanceTestE17InstantiationInfoEEPT_RS6_
FN:51,52,_ZSt11__addressofISaISt23_Sp_counted_ptr_inplaceIN7testing10OnceActionIFivEEESaIvELN9__gnu_cxx12_Lock_policyE2EEEEPT_RSA_
FN:51,52,_ZSt11__addressofISaISt23_Sp_counted_ptr_inplaceIN7testing8internal12ReturnActionIiE4ImplIiEESaIvELN9__gnu_cxx12_Lock_policyE2EEEEPT_RSC_
FN:51,52,_ZSt11__addressofISt10shared_ptrIN7testing8internal15ExpectationBaseEEEPT_RS5_
FN:51,52,_ZSt11__addressofISt10shared_ptrIN7testing8internal26ParameterizedTestSuiteInfoI18AccountBalanceTestE8TestInfoEEEPT_RS8_
FN:70,71,_ZSt7forwardIN7testing10OnceActionIFivEE18StdFunctionAdaptorINS0_8internal12ReturnActionIiE4ImplIiEEEEEOT_RNSt16remove_referenceISB_E4typeE
FN:70,71,_ZSt7forwardIN7testing10OnceActionIFivEEEEOT_RNSt16remove_referenceIS4_E4typeE
FN:70,71,_ZSt7forwardIN7testing7MatcherIR7AccountEEEOT_RNSt16remove_referenceIS5_E4typeE
FN:70,71,_ZSt7forwardIN7testing7MatcherIiEEEOT_RNSt16remove_referenceIS3_E4typeE
FN:70,71,_ZSt7forwardIN7testing8internal10ValueArrayIJiiiiEEEEOT_RNSt16remove_referenceIS4_E4typeE
FN:70,71,_ZSt7forwardIN7testing8internal12ReturnActionIiE4ImplIiEEEOT_RNSt16remove_referenceIS6_E4typeE
FN:70,71,_ZSt7forwardIN7testing8internal16TypedExpectationIFivEE13ActionAdaptorEEOT_RNSt16remove_referenceIS6_E4typeE
FN:70,71,_ZSt7forwardIN7testing8internal26ParameterizedTestSuiteInfoI18AccountBalanceTestE17InstantiationInfoEEOT_RNSt16remove_referenceIS6_E4typeE
FN:70,71,_ZSt7forwardIN7testing8internal9EqMatcherIiEEEOT_RNSt16remove_referenceIS4_E4typeE
FN:70,71,_ZSt7forwardIPKN7testing8internal11MatcherBaseIR7AccountEEEOT_RNSt16remove_referenceIS8_E4typeE
FN:70,71,_ZSt7forwardIPKN7testing8internal11MatcherBaseIRKSt5tupleIJEEEEEOT_RNSt16remove_referenceISA_E4typeE
FN:70,71,_ZSt7forwardIPKN7testing8internal11MatcherBaseIRKSt5tupleIJR7AccountS5_iEEEEEOT_RNSt16remove_referenceISC_E4typeE
FN:70,71,_ZSt7forwardIPKN7testing8internal11MatcherBaseIRKSt5tupleIJiEEEEEOT_RNSt16remove_referenceISA_E4typeE
FN:70,71,_ZSt7forwardIPKN7testing8internal11MatcherBaseIiEEEOT_RNSt16remove_referenceIS6_E4typeE
FN:70,71,_ZSt7forwardIPKN7testing8internal15AnythingMatcherEEOT_RNSt16remove_referenceIS5_E4typeE
FN:70,71,_ZSt7forwardIPKN7testing8internal9EqMatcherIiEEEOT_RNSt16remove_referenceIS6_E4typeE
FN:70,71,_ZSt7forwardIPKvEOT_RNSt16remove_referenceIS2_E4typeE
FN:70,71,_ZSt7forwardIPN7testing8internal30ParameterizedTestSuiteInfoBaseEEOT_RNSt16remove_referenceIS4_E4typeE
FN:70,71,_ZSt7forwardIR7AccountEOT_RNSt16remove_referenceIS2_E4typeE
FN:70,71,_ZSt7forwardIRKN7testing10OnceActionIFivEE18StdFunctionAdaptorINS0_8internal12ReturnActionIiE4ImplIiEEEEEOT_RNSt16remove_referenceISD_E4typeE
FN:70,71,_ZSt7forwardIRKN7testing8internal15AnythingMatcherEEOT_RNSt16remove_referenceIS5_E4typeE
FN:70,71,_ZSt7forwardIRKN7testing8internal16TypedExpectationIFivEE13ActionAdaptorEEOT_RNSt16remove_referenceIS8_E4typeE
FN:70,71,_ZSt7forwardIRKNSt7__cxx1112basic_stringIcSt11char_traitsIcESaIcEEEEOT_RNSt16remove_referenceIS8_E4typeE
FN:70,71,_ZSt7forwardIRKSt10shared_ptrIN7testing8internal15ExpectationBaseEEEOT_RNSt16remove_referenceIS7_E4typeE
FN:70,71,_ZSt7forwardIRKSt8functionIFivEEEOT_RNSt16remove_referenceIS5_E4typeE
FN:70,71,_ZSt7forwardIRKSt8functionIFvR7AccountS2_iEEEOT_RNSt16remove_referenceIS7_E4typeE
FN:70,71,_ZSt7forwardIRKSt8functionIFviEEEOT_RNSt16remove_referenceIS5_E4typeE
FN:70,71,_ZSt7forwardIRKSt8functionIFvvEEEOT_RNSt16remove_referenceIS5_E4typeE
FN:70,71,_ZSt7forwardIRKiEOT_RNSt16remove_referenceIS2_E4typeE
FN:70,71,_ZSt7forwardIRN7testing10OnceActionIFivEE18StdFunctionAdaptorINS0_8internal12ReturnActionIiE4ImplIiEEEEEOT_RNSt16remove_referenceISC_E4typeE
FN:70,71,_ZSt7forwardIRN7testing8internal16TypedExpectationIFivEE13ActionAdaptorEEOT_RNSt16remove_referenceIS7_E4typeE
FN:70,71,_ZSt7forwardIRPSt13_Rb_tree_nodeINSt7__cxx1112basic_stringIcSt11char_traitsIcESaIcEEEEEOT_RNSt16remove_referenceISA_E4typeE
FN:70,71,_ZSt7forwardIRPSt18_Rb_tree_node_baseEOT_RNSt16remove_referenceIS3_E4typeE
FN:70,71,_ZSt7forwardIRSt17_Rb_tree_iteratorINSt7__cxx1112basic_stringIcSt11char_traitsIcESaIcEEEEEOT_RNSt16remove_referenceIS9_E4typeE
FN:70,71,_ZSt7forwardIRbEOT_RNSt16remove_referenceIS1_E4typeE
FN:70,71,_ZSt7forwardISt10shared_ptrIN7testing8internal15ExpectationBaseEEEOT_RNSt16remove_referenceIS5_E4typeE
FN:70,71,_ZSt7forwardISt10shared_ptrIN7testing8internal26ParameterizedTestSuiteInfoI18AccountBalanceTestE8TestInfoEEEOT_RNSt16remove_referenceIS8_E4typeE
FN:70,71,_ZSt7forwardISt17_Rb_tree_iteratorINSt7__cxx1112basic_stringIcSt11char_traitsIcESaIcEEEEEOT_RNSt16remove_referenceIS8_E4typeE
FN:70,71,_ZSt7forwardISt5tupleIJEEEOT_RNSt16remove_referenceIS2_E4typeE
FN:70,71,_ZSt7forwardISt5tupleIJR7AccountS2_iEEEOT_RNSt16remove_referenceIS4_E4typeE
FN:70,71,_ZSt7forwardISt5tupleIJiEEEOT_RNSt16remove_referenceIS2_E4typeE
FN:70,71,_ZSt7forwardIbEOT_RNSt16remove_referenceIS0_E4typeE
FN:70,71,_ZSt7forwardIiEOT_RNSt16remove_referenceIS0_E4typeE
FN:97,98,_ZSt4moveIRN7testing10OnceActionIFivEEEEONSt16remove_referenceIT_E4typeEOS6_
FN:97,98,_ZSt4moveIRN7testing6ActionIFivEEEEONSt16remove_referenceIT_E4typeEOS6_
FN:97,98,_ZSt4moveIRN7testing7MatcherIR7AccountEEEONSt16remove_referenceIT_E4typeEOS7_
FN:97,98,_ZSt4moveIRN7testing7MatcherIiEEEONSt16remove_referenceIT_E4typeEOS5_
FN:97,98,_ZSt4moveIRN7testing8internal12ReturnActionIiE4ImplIiEEEONSt16remove_referenceIT_E4typeEOS8_
FN:97,98,_ZSt4moveIRN7testing8internal26ParameterizedTestSuiteInfoI18AccountBalanceTestE17InstantiationInfoEEONSt16remove_referenceIT_E4typeEOS8_
FN:97,98,_ZSt4moveIRNSt7__cxx1112basic_stringIcSt11char_traitsIcESaIcEEEEONSt16remove_referenceIT_E4typeEOS8_
FN:97,98,_ZSt4moveIRPFbRSt9_Any_dataRKS0_St18_Manager_operationEEONSt16remove_referenceIT_E4typeEOS9_
FN:97,98,_ZSt4moveIRPFiRKSt9_Any_dataEEONSt16remove_referenceIT_E4typeEOS7_
FN:97,98,_ZSt4moveIRPKiEONSt16remove_referenceIT_E4typeEOS4_
FN:97,98,_ZSt4moveIRPKvEONSt16remove_referenceIT_E4typeEOS4_
FN:97,98,_ZSt4moveIRPN7testing8internal19TestMetaFactoryBaseIiEEEONSt16remove_referenceIT_E4typeEOS7_
FN:97,98,_ZSt4moveIRPN7testing8internal22ParamIteratorInterfaceIiEEEONSt16remove_referenceIT_E4typeEOS7_
FN:97,98,_ZSt4moveIRPN7testing8internal26ParameterizedTestSuiteInfoI18AccountBalanceTestE17InstantiationInfoEEONSt16remove_referenceIT_E4typeEOS9_
FN:97,98,_ZSt4moveIRPN7testing8internal30ParameterizedTestSuiteInfoBaseEEONSt16remove_referenceIT_E4typeEOS6_
FN:97,98,_ZSt4moveIRPNSt7__cxx1112basic_stringIcSt11char_traitsIcESaIcEEEEONSt16remove_referenceIT_E4typeEOS9_
FN:97,98,_ZSt4moveIRPNSt7__cxx1118basic_stringstreamIcSt11char_traitsIcESaIcEEEEONSt16remove_referenceIT_E4typeEOS9_
FN:97,98,_ZSt4moveIRPPKvEONSt16remove_referenceIT_E4typeEOS5_
FN:97,98,_ZSt4moveIRPPN7testing8internal30ParameterizedTestSuiteInfoBaseEEONSt16remove_referenceIT_E4typeEOS7_
FN:97,98,_ZSt4moveIRPSt10shared_ptrIN7testing8internal15ExpectationBaseEEEONSt16remove_referenceIT_E4typeEOS8_
FN:97,98,_ZSt4moveIRPSt10shared_ptrIN7testing8internal26ParameterizedTestSuiteInfoI18AccountBalanceTestE8TestInfoEEEONSt16remove_referenceIT_E4typeEOSB_
FN:97,98,_ZSt4moveIRSaIcEEONSt16remove_referenceIT_E4typeEOS3_
FN:97,98,_ZSt4moveIRSt10shared_ptrIN7testing10OnceActionIFivEEEEEONSt16remove_referenceIT_E4typeEOS8_
FN:97,98,_ZSt4moveIRSt10shared_ptrIN7testing8internal12ReturnActionIiE4ImplIiEEEEONSt16remove_referenceIT_E4typeEOSA_
FN:97,98,_ZSt4moveIRSt10shared_ptrIN7testing8internal15ExpectationBaseEEEONSt16remove_referenceIT_E4typeEOS7_
FN:97,98,_ZSt4moveIRSt10shared_ptrIN7testing8internal26ParameterizedTestSuiteInfoI18AccountBalanceTestE8TestInfoEEEONSt16remove_referenceIT_E4typeEOSA_
FN:97,98,_ZSt4moveIRSt5tupleIJEEEONSt16remove_referenceIT_E4typeEOS4_
FN:97,98,_ZSt4moveIRSt5tupleIJR7AccountS2_iEEEONSt16remove_referenceIT_E4typeEOS6_
FN:97,98,_ZSt4moveIRSt5tupleIJiEEEONSt16remove_referenceIT_E4typeEOS4_
FN:97,98,_ZSt4moveIRSt9_Any_dataEONSt16remove_referenceIT_E4typeEOS3_
FN:97,98,_ZSt4moveIRiEONSt16remove_referenceIT_E4typeEOS2_
FNDA:0,_ZSt9addressofIK7AccountEPT_RS2_
FNDA:2,_ZSt4swapIPFbRSt9_Any_dataRKS0_St18_Manager_operationEENSt9enable_ifIXsrSt6__and_IJSt6__not_ISt15__is_tuple_likeIT_EESt21is_move_constructibleISB_ESt18is_move_assignableISB_EEE5valueEvE4typeERSB_SL_
FNDA:2,_ZSt4swapIPFiRKSt9_Any_dataEENSt9enable_ifIXsrSt6__and_IJSt6__not_ISt15__is_tuple_likeIT_EESt21is_move_constructibleIS9_ESt18is_move_assignableIS9_EEE5valueEvE4typeERS9_SJ_
FNDA:2,_ZSt4swapISt9_Any_dataENSt9enable_ifIXsrSt6__and_IJSt6__not_ISt15__is_tuple_likeIT_EESt21is_move_constructibleIS5_ESt18is_move_assignableIS5_EEE5valueEvE4typeERS5_SF_
FNDA:0,_ZSt11__addressofIK7AccountEPT_RS2_
FNDA:1,_ZSt11__addressofIN7testing8internal26ParameterizedTestSuiteInfoI18AccountBalanceTestE17InstantiationInfoEEPT_RS6_
FNDA:4,_ZSt11__addressofISaISt23_Sp_counted_ptr_inplaceIN7testing10OnceActionIFivEEESaIvELN9__gnu_cxx12_Lock_policyE2EEEEPT_RSA_
FNDA:4,_ZSt11__addressofISaISt23_Sp_counted_ptr_inplaceIN7testing8internal12ReturnActionIiE4ImplIiEESaIvELN9__gnu_cxx12_Lock_policyE2EEEEPT_RSC_
FNDA:20,_ZSt11__addressofISt10shared_ptrIN7testing8internal15ExpectationBaseEEEPT_RS5_
FNDA:1,_ZSt11__addressofISt10shared_ptrIN7testing8internal26ParameterizedTestSuiteInfoI18AccountBalanceTestE8TestInfoEEEPT_RS8_
FNDA:6,_ZSt7forwardIN7testing10OnceActionIFivEE18StdFunctionAdaptorINS0_8internal12ReturnActionIiE4ImplIiEEEEEOT_RNSt16remove_referenceISB_E4typeE
FNDA:14,_ZSt7forwardIN7testing10OnceActionIFivEEEEOT_RNSt16remove_referenceIS4_E4typeE
FNDA:27,_ZSt7forwardIN7testing7MatcherIR7AccountEEEOT_RNSt16remove_referenceIS5_E4typeE
FNDA:34,_ZSt7forwardIN7testing7MatcherIiEEEOT_RNSt16remove_referenceIS3_E4typeE
FNDA:0,_ZSt7forwardIN7testing8internal10ValueArrayIJiiiiEEEEOT_RNSt16remove_referenceIS4_E4typeE
FNDA:18,_ZSt7forwardIN7testing8internal12ReturnActionIiE4ImplIiEEEOT_RNSt16remove_referenceIS6_E4typeE
FNDA:12,_ZSt7forwardIN7testing8internal16TypedExpectationIFivEE13ActionAdaptorEEOT_RNSt16remove_referenceIS6_E4typeE
FNDA:4,_ZSt7forwardIN7testing8internal26ParameterizedTestSuiteInfoI18AccountBalanceTestE17InstantiationInfoEEOT_RNSt16remove_referenceIS6_E4typeE
FNDA:18,_ZSt7forwardIN7testing8internal9EqMatcherIiEEEOT_RNSt16remove_referenceIS4_E4typeE
FNDA:0,_ZSt7forwardIPKN7testing8internal11MatcherBaseIR7AccountEEEOT_RNSt16remove_referenceIS8_E4typeE
FNDA:0,_ZSt7forwardIPKN7testing8internal11MatcherBaseIRKSt5tupleIJEEEEEOT_RNSt16remove_referenceISA_E4typeE
FNDA:0,_ZSt7forwardIPKN7testing8internal11MatcherBaseIRKSt5tupleIJR7AccountS5_iEEEEEOT_RNSt16remove_referenceISC_E4typeE
FNDA:0,_ZSt7forwardIPKN7testing8internal11MatcherBaseIRKSt5tupleIJiEEEEEOT_RNSt16remove_referenceISA_E4typeE
FNDA:0,_ZSt7forwardIPKN7testing8internal11MatcherBaseIiEEEOT_RNSt16remove_referenceIS6_E4typeE
FNDA:0,_ZSt7forwardIPKN7testing8internal15AnythingMatcherEEOT_RNSt16remove_referenceIS5_E4typeE
FNDA:0,_ZSt7forwardIPKN7testing8internal9EqMatcherIiEEEOT_RNSt16remove_referenceIS6_E4typeE
FNDA:8,_ZSt7forwardIPKvEOT_RNSt16remove_referenceIS2_E4typeE
FNDA:4,_ZSt7forwardIPN7testing8internal30ParameterizedTestSuiteInfoBaseEEOT_RNSt16remove_referenceIS4_E4typeE
FNDA:18,_ZSt7forwardIR7AccountEOT_RNSt16remove_referenceIS2_E4typeE
FNDA:0,_ZSt7forwardIRKN7testing10OnceActionIFivEE18StdFunctionAdaptorINS0_8internal12ReturnActionIiE4ImplIiEEEEEOT_RNSt16remove_referenceISD_E4typeE
FNDA:72,_ZSt7forwardIRKN7testing8internal15AnythingMatcherEEOT_RNSt16remove_referenceIS5_E4typeE
FNDA:4,_ZSt7forwardIRKN7testing8internal16TypedExpectationIFivEE13ActionAdaptorEEOT_RNSt16remove_referenceIS8_E4typeE
FNDA:29,_ZSt7forwardIRKNSt7__cxx1112basic_stringIcSt11char_traitsIcESaIcEEEEOT_RNSt16remove_referenceIS8_E4typeE
FNDA:51,_ZSt7forwardIRKSt10shared_ptrIN7testing8internal15ExpectationBaseEEEOT_RNSt16remove_referenceIS7_E4typeE
FNDA:4,_ZSt7forwardIRKSt8functionIFivEEEOT_RNSt16remove_referenceIS5_E4typeE
FNDA:0,_ZSt7forwardIRKSt8functionIFvR7AccountS2_iEEEOT_RNSt16remove_referenceIS7_E4typeE
FNDA:0,_ZSt7forwardIRKSt8functionIFviEEEOT_RNSt16remove_referenceIS5_E4typeE
FNDA:0,_ZSt7forwardIRKSt8functionIFvvEEEOT_RNSt16remove_referenceIS5_E4typeE
FNDA:12,_ZSt7forwardIRKiEOT_RNSt16remove_referenceIS2_E4typeE
FNDA:4,_ZSt7forwardIRN7testing10OnceActionIFivEE18StdFunctionAdaptorINS0_8internal12ReturnActionIiE4ImplIiEEEEEOT_RNSt16remove_referenceISC_E4typeE
FNDA:4,_ZSt7forwardIRN7testing8internal16TypedExpectationIFivEE13ActionAdaptorEEOT_RNSt16remove_referenceIS7_E4typeE
FNDA:4,_ZSt7forwardIRPSt13_Rb_tree_nodeINSt7__cxx1112basic_stringIcSt11char_traitsIcESaIcEEEEEOT_RNSt16remove_referenceISA_E4typeE
FNDA:43,_ZSt7forwardIRPSt18_Rb_tree_node_baseEOT_RNSt16remove_referenceIS3_E4typeE
FNDA:4,_ZSt7forwardIRSt17_Rb_tree_iteratorINSt7__cxx1112basic_stringIcSt11char_traitsIcESaIcEEEEEOT_RNSt16remove_referenceIS9_E4typeE
FNDA:35,_ZSt7forwardIRbEOT_RNSt16remove_referenceIS1_E4typeE
FNDA:2,_ZSt7forwardISt10shared_ptrIN7testing8internal15ExpectationBaseEEEOT_RNSt16remove_referenceIS5_E4typeE
FNDA:4,_ZSt7forwardISt10shared_ptrIN7testing8internal26ParameterizedTestSuiteInfoI18AccountBalanceTestE8TestInfoEEEOT_RNSt16remove_referenceIS8_E4typeE
FNDA:4,_ZSt7forwardISt17_Rb_tree_iteratorINSt7__cxx1112basic_stringIcSt11char_traitsIcESaIcEEEEEOT_RNSt16remove_referenceIS8_E4typeE
FNDA:140,_ZSt7forwardISt5tupleIJEEEOT_RNSt16remove_referenceIS2_E4typeE
FNDA:0,_ZSt7forwardISt5tupleIJR7AccountS2_iEEEOT_RNSt16remove_referenceIS4_E4typeE
FNDA:0,_ZSt7forwardISt5tupleIJiEEEOT_RNSt16remove_referenceIS2_E4typeE
FNDA:35,_ZSt7forwardIbEOT_RNSt16remove_referenceIS0_E4typeE
FNDA:155,_ZSt7forwardIiEOT_RNSt16remove_referenceIS0_E4typeE
FNDA:4,_ZSt4moveIRN7testing10OnceActionIFivEEEEONSt16remove_referenceIT_E4typeEOS6_
FNDA:2,_ZSt4moveIRN7testing6ActionIFivEEEEONSt16remove_referenceIT_E4typeEOS6_
FNDA:6,_ZSt4moveIRN7testing7MatcherIR7AccountEEEONSt16remove_referenceIT_E4typeEOS7_
FNDA:7,_ZSt4moveIRN7testing7MatcherIiEEEONSt16remove_referenceIT_E4typeEOS5_
FNDA:2,_ZSt4moveIRN7testing8internal12ReturnActionIiE4ImplIiEEEONSt16remove_referenceIT_E4typeEOS8_
FNDA:1,_ZSt4moveIRN7testing8internal26ParameterizedTestSuiteInfoI18AccountBalanceTestE17InstantiationInfoEEONSt16remove_referenceIT_E4typeEOS8_
FNDA:207,_ZSt4moveIRNSt7__cxx1112basic_stringIcSt11char_traitsIcESaIcEEEEONSt16remove_referenceIT_E4typeEOS8_
FNDA:6,_ZSt4moveIRPFbRSt9_Any_dataRKS0_St18_Manager_operationEEONSt16remove_referenceIT_E4typeEOS9_
FNDA:6,_ZSt4moveIRPFiRKSt9_Any_dataEEONSt16remove_referenceIT_E4typeEOS7_
FNDA:8,_ZSt4moveIRPKiEONSt16remove_referenceIT_E4typeEOS4_
FNDA:2,_ZSt4moveIRPKvEONSt16remove_referenceIT_E4typeEOS4_
FNDA:1,_ZSt4moveIRPN7testing8internal19TestMetaFactoryBaseIiEEEONSt16remove_referenceIT_E4typeEOS7_
FNDA:6,_ZSt4moveIRPN7testing8internal22ParamIteratorInterfaceIiEEEONSt16remove_referenceIT_E4typeEOS7_
FNDA:0,_ZSt4moveIRPN7testing8internal26ParameterizedTestSuiteInfoI18AccountBalanceTestE17InstantiationInfoEEONSt16remove_referenceIT_E4typeEOS9_
FNDA:1,_ZSt4moveIRPN7testing8internal30ParameterizedTestSuiteInfoBaseEEONSt16remove_referenceIT_E4typeEOS6_
FNDA:0,_ZSt4moveIRPNSt7__cxx1112basic_stringIcSt11char_traitsIcESaIcEEEEONSt16remove_referenceIT_E4typeEOS9_
FNDA:105,_ZSt4moveIRPNSt7__cxx1118basic_stringstreamIcSt11char_traitsIcESaIcEEEEONSt16remove_referenceIT_E4typeEOS9_
FNDA:0,_ZSt4moveIRPPKvEONSt16remove_referenceIT_E4typeEOS5_
FNDA:0,_ZSt4moveIRPPN7testing8internal30ParameterizedTestSuiteInfoBaseEEONSt16remove_referenceIT_E4typeEOS7_
FNDA:0,_ZSt4moveIRPSt10shared_ptrIN7testing8internal15ExpectationBaseEEEONSt16remove_referenceIT_E4typeEOS8_
FNDA:0,_ZSt4moveIRPSt10shared_ptrIN7testing8internal26ParameterizedTestSuiteInfoI18AccountBalanceTestE8TestInfoEEEONSt16remove_referenceIT_E4typeEOSB_
FNDA:0,_ZSt4moveIRSaIcEEONSt16remove_referenceIT_E4typeEOS3_
FNDA:2,_ZSt4moveIRSt10shared_ptrIN7testing10OnceActionIFivEEEEEONSt16remove_referenceIT_E4typeEOS8_
FNDA:2,_ZSt4moveIRSt10shared_ptrIN7testing8internal12ReturnActionIiE4ImplIiEEEEONSt16remove_referenceIT_E4typeEOSA_
FNDA:2,_ZSt4moveIRSt10shared_ptrIN7testing8internal15ExpectationBaseEEEONSt16remove_referenceIT_E4typeEOS7_
FNDA:2,_ZSt4moveIRSt10shared_ptrIN7testing8internal26ParameterizedTestSuiteInfoI18AccountBalanceTestE8TestInfoEEEONSt16remove_referenceIT_E4typeEOSA_
FNDA:22,_ZSt4moveIRSt5tupleIJEEEONSt16remove_referenceIT_E4typeEOS4_
FNDA:4,_ZSt4moveIRSt5tupleIJR7AccountS2_iEEEONSt16remove_referenceIT_E4typeEOS6_
FNDA:8,_ZSt4moveIRSt5tupleIJiEEEONSt16remove_referenceIT_E4typeEOS4_
FNDA:6,_ZSt4moveIRSt9_Any_dataEONSt16remove_referenceIT_E4typeEOS3_
FNDA:43,_ZSt4moveIRiEONSt16remove_referenceIT_E4typeEOS2_
FNF:84
FNH:61
DA:51,30
DA:52,30
DA:70,769
DA:71,769
DA:97,455
DA:98,455
DA:138,0
DA:139,0
DA:189,6
DA:197,6
DA:198,6
DA:199,6
DA:200,6
LF:13
LH:11
end_of_record
TN:
SF:/usr/include/c++/13/bits/new_allocator.h
FN:104,104,_ZNSt15__new_allocatorIN7testing8internal26ParameterizedTestSuiteInfoI18AccountBalanceTestE17InstantiationInfoEED2Ev
FN:104,104,_ZNSt15__new_allocatorIPKvED2Ev
FN:104,104,_ZNSt15__new_allocatorISt10shared_ptrIN7testing8internal26ParameterizedTestSuiteInfoI18AccountBalanceTestE8TestInfoEEED2Ev
FN:104,104,_ZNSt15__new_allocatorISt13_Rb_tree_nodeIN7testing11ExpectationEEED2Ev
FN:104,104,_ZNSt15__new_allocatorISt13_Rb_tree_nodeINSt7__cxx1112basic_stringIcSt11char_traitsIcESaIcEEEEED2Ev
FN:104,104,_ZNSt15__new_allocatorISt23_Sp_counted_ptr_inplaceIN7testing10OnceActionIFivEEESaIvELN9__gnu_cxx12_Lock_policyE2EEED2Ev
FN:104,104,_ZNSt15__new_allocatorISt23_Sp_counted_ptr_inplaceIN7testing8internal12ReturnActionIiE4ImplIiEESaIvELN9__gnu_cxx12_Lock_policyE2EEED2Ev
FN:104,104,_ZNSt15__new_allocatorIcED2Ev
FN:104,104,_ZNSt15__new_allocatorIiED2Ev
FN:126,152,_ZNSt15__new_allocatorIN7testing8internal26ParameterizedTestSuiteInfoI18AccountBalanceTestE17InstantiationInfoEE8allocateEmPKv
FN:126,152,_ZNSt15__new_allocatorIPKvE8allocateEmS1_
FN:126,152,_ZNSt15__new_allocatorIPN7testing8internal30ParameterizedTestSuiteInfoBaseEE8allocateEmPKv
FN:126,152,_ZNSt15__new_allocatorISt10shared_ptrIN7testing8internal15ExpectationBaseEEE8allocateEmPKv
FN:126,152,_ZNSt15__new_allocatorISt10shared_ptrIN7testing8internal26ParameterizedTestSuiteInfoI18AccountBalanceTestE8TestInfoEEE8allocateEmPKv
FN:126,152,_ZNSt15__new_allocatorISt13_Rb_tree_nodeINSt7__cxx1112basic_stringIcSt11char_traitsIcESaIcEEEEE8allocateEmPKv
FN:126,152,_ZNSt15__new_allocatorISt23_Sp_counted_ptr_inplaceIN7testing10OnceActionIFivEEESaIvELN9__gnu_cxx12_Lock_policyE2EEE8allocateEmPKv
FN:126,152,_ZNSt15__new_allocatorISt23_Sp_counted_ptr_inplaceIN7testing8internal12ReturnActionIiE4ImplIiEESaIvELN9__gnu_cxx12_Lock_policyE2EEE8allocateEmPKv
FN:126,152,_ZNSt15__new_allocatorIiE8allocateEmPKv
FN:156,173,_ZNSt15__new_allocatorIN7testing8internal26ParameterizedTestSuiteInfoI18AccountBalanceTestE17InstantiationInfoEE10deallocateEPS5_m
FN:156,173,_ZNSt15__new_allocatorIPKvE10deallocateEPS1_m
FN:156,173,_ZNSt15__new_allocatorIPN7testing8internal30ParameterizedTestSuiteInfoBaseEE10deallocateEPS3_m
FN:156,173,_ZNSt15__new_allocatorISt10shared_ptrIN7testing8internal15ExpectationBaseEEE10deallocateEPS4_m
FN:156,173,_ZNSt15__new_allocatorISt10shared_ptrIN7testing8internal26ParameterizedTestSuiteInfoI18AccountBalanceTestE8TestInfoEEE10deallocateEPS7_m
FN:156,173,_ZNSt15__new_allocatorISt13_Rb_tree_nodeIN7testing11ExpectationEEE10deallocateEPS3_m
FN:156,173,_ZNSt15__new_allocatorISt13_Rb_tree_nodeINSt7__cxx1112basic_stringIcSt11char_traitsIcESaIcEEEEE10deallocateEPS7_m
FN:156,173,_ZNSt15__new_allocatorISt23_Sp_counted_ptr_inplaceIN7testing10OnceActionIFivEEESaIvELN9__gnu_cxx12_Lock_policyE2EEE10deallocateEPS8_m
FN:156,173,_ZNSt15__new_allocatorISt23_Sp_counted_ptr_inplaceIN7testing8internal12ReturnActionIiE4ImplIiEESaIvELN9__gnu_cxx12_Lock_policyE2EEE10deallocateEPSA_m
FN:156,173,_ZNSt15__new_allocatorIiE10deallocateEPim
FNDA:1,_ZNSt15__new_allocatorIN7testing8internal26ParameterizedTestSuiteInfoI18AccountBalanceTestE17InstantiationInfoEED2Ev
FNDA:161,_ZNSt15__new_allocatorIPKvED2Ev
FNDA:1,_ZNSt15__new_allocatorISt10shared_ptrIN7testing8internal26ParameterizedTestSuiteInfoI18AccountBalanceTestE8TestInfoEEED2Ev
FNDA:17,_ZNSt15__new_allocatorISt13_Rb_tree_nodeIN7testing11ExpectationEEED2Ev
FNDA:2,_ZNSt15__new_allocatorISt13_Rb_tree_nodeINSt7__cxx1112basic_stringIcSt11char_traitsIcESaIcEEEEED2Ev
FNDA:4,_ZNSt15__new_allocatorISt23_Sp_counted_ptr_inplaceIN7testing10OnceActionIFivEEESaIvELN9__gnu_cxx12_Lock_policyE2EEED2Ev
FNDA:4,_ZNSt15__new_allocatorISt23_Sp_counted_ptr_inplaceIN7testing8internal12ReturnActionIiE4ImplIiEESaIvELN9__gnu_cxx12_Lock_policyE2EEED2Ev
FNDA:364,_ZNSt15__new_allocatorIcED2Ev
FNDA:11,_ZNSt15__new_allocatorIiED2Ev
FNDA:1,_ZNSt15__new_allocatorIN7testing8internal26ParameterizedTestSuiteInfoI18AccountBalanceTestE17InstantiationInfoEE8allocateEmPKv
FNDA:2,_ZNSt15__new_allocatorIPKvE8allocateEmS1_
FNDA:1,_ZNSt15__new_allocatorIPN7testing8internal30ParameterizedTestSuiteInfoBaseEE8allocateEmPKv
FNDA:17,_ZNSt15__new_allocatorISt10shared_ptrIN7testing8internal15ExpectationBaseEEE8allocateEmPKv
FNDA:1,_ZNSt15__new_allocatorISt10shared_ptrIN7testing8internal26ParameterizedTestSuiteInfoI18AccountBalanceTestE8TestInfoEEE8allocateEmPKv
FNDA:4,_ZNSt15__new_allocatorISt13_Rb_tree_nodeINSt7__cxx1112basic_stringIcSt11char_traitsIcESaIcEEEEE8allocateEmPKv
FNDA:2,_ZNSt15__new_allocatorISt23_Sp_counted_ptr_inplaceIN7testing10OnceActionIFivEEESaIvELN9__gnu_cxx12_Lock_policyE2EEE8allocateEmPKv
FNDA:2,_ZNSt15__new_allocatorISt23_Sp_counted_ptr_inplaceIN7testing8internal12ReturnActionIiE4ImplIiEESaIvELN9__gnu_cxx12_Lock_policyE2EEE8allocateEmPKv
FNDA:16,_ZNSt15__new_allocatorIiE8allocateEmPKv
FNDA:1,_ZNSt15__new_allocatorIN7testing8internal26ParameterizedTestSuiteInfoI18AccountBalanceTestE17InstantiationInfoEE10deallocateEPS5_m
FNDA:2,_ZNSt15__new_allocatorIPKvE10deallocateEPS1_m
FNDA:1,_ZNSt15__new_allocatorIPN7testing8internal30ParameterizedTestSuiteInfoBaseEE10deallocateEPS3_m
FNDA:17,_ZNSt15__new_allocatorISt10shared_ptrIN7testing8internal15ExpectationBaseEEE10deallocateEPS4_m
FNDA:1,_ZNSt15__new_allocatorISt10shared_ptrIN7testing8internal26ParameterizedTestSuiteInfoI18AccountBalanceTestE8TestInfoEEE10deallocateEPS7_m
FNDA:14,_ZNSt15__new_allocatorISt13_Rb_tree_nodeIN7testing11ExpectationEEE10deallocateEPS3_m
FNDA:4,_ZNSt15__new_allocatorISt13_Rb_tree_nodeINSt7__cxx1112basic_stringIcSt11char_traitsIcESaIcEEEEE10deallocateEPS7_m
FNDA:2,_ZNSt15__new_allocatorISt23_Sp_counted_ptr_inplaceIN7testing10OnceActionIFivEEESaIvELN9__gnu_cxx12_Lock_policyE2EEE10deallocateEPS8_m
FNDA:2,_ZNSt15__new_allocatorISt23_Sp_counted_ptr_inplaceIN7testing8internal12ReturnActionIiE4ImplIiEESaIvELN9__gnu_cxx12_Lock_policyE2EEE10deallocateEPSA_m
FNDA:16,_ZNSt15__new_allocatorIiE10deallocateEPim
FNF:28
FNH:28
DA:88,248
DA:92,70
DA:104,565
DA:126,46
DA:134,46
DA:138,0
DA:139,0
DA:140,0
DA:151,46
DA:156,60
DA:172,60
DA:173,60
DA:183,74
DA:191,27
DA:198,19
DA:233,120
LF:16
LH:13
end_of_record
TN:
SF:/usr/include/c++/13/bits/ptr_traits.h
FN:212,216,_ZSt12__to_addressISt23_Sp_counted_ptr_inplaceIN7testing10OnceActionIFivEEESaIvELN9__gnu_cxx12_Lock_policyE2EEEPT_SA_
FN:212,216,_ZSt12__to_addressISt23_Sp_counted_ptr_inplaceIN7testing8internal12ReturnActionIiE4ImplIiEESaIvELN9__gnu_cxx12_Lock_policyE2EEEPT_SC_
FNDA:2,_ZSt12__to_addressISt23_Sp_counted_ptr_inplaceIN7testing10OnceActionIFivEEESaIvELN9__gnu_cxx12_Lock_policyE2EEEPT_SA_
FNDA:2,_ZSt12__to_addressISt23_Sp_counted_ptr_inplaceIN7testing8internal12ReturnActionIiE4ImplIiEESaIvELN9__gnu_cxx12_Lock_policyE2EEEPT_SC_
FNF:2
FNH:2
DA:212,4
DA:215,4
LF:2
LH:2
end_of_record
TN:
SF:/usr/include/c++/13/bits/shared_ptr.h
FN:1005,1011,_ZSt11make_sharedIN7testing10OnceActionIFivEEEJS3_EESt10shared_ptrINSt9enable_ifIXntsrSt8is_arrayIT_E5valueES7_E4typeEEDpOT0_
FN:1005,1011,_ZSt11make_sharedIN7testing8internal12ReturnActionIiE4ImplIiEEJS5_EESt10shared_ptrINSt9enable_ifIXntsrSt8is_arrayIT_E5valueES9_E4typeEEDpOT0_
FN:204,204,_ZNSt10shared_ptrIN7testing10OnceActionIFivEEEEC2ERKS4_
FN:204,204,_ZNSt10shared_ptrIN7testing8internal12ReturnActionIiE4ImplIiE5StateEEC2ERKS7_
FN:204,204,_ZNSt10shared_ptrIN7testing8internal12ReturnActionIiE4ImplIiEEEC2ERKS6_
FN:204,204,_ZNSt10shared_ptrIN7testing8internal15ExpectationBaseEEC2ERKS3_
FN:204,204,_ZNSt10shared_ptrIN7testing8internal26ParameterizedTestSuiteInfoI18AccountBalanceTestE8TestInfoEEC2ERKS6_
FN:214,214,_ZNSt10shared_ptrIKN7testing8internal23ParamGeneratorInterfaceIiEEEC2IS3_vEEPT_
FN:214,214,_ZNSt10shared_ptrIN7testing8internal12ReturnActionIiE4ImplIiE5StateEEC2IS6_vEEPT_
FN:214,214,_ZNSt10shared_ptrIN7testing8internal15ExpectationBaseEEC2INS1_16TypedExpectationIFivEEEvEEPT_
FN:214,214,_ZNSt10shared_ptrIN7testing8internal15ExpectationBaseEEC2INS1_16TypedExpectationIFvR7AccountS7_iEEEvEEPT_
FN:214,214,_ZNSt10shared_ptrIN7testing8internal15ExpectationBaseEEC2INS1_16TypedExpectationIFviEEEvEEPT_
FN:214,214,_ZNSt10shared_ptrIN7testing8internal15ExpectationBaseEEC2INS1_16TypedExpectationIFvvEEEvEEPT_
FN:214,214,_ZNSt10shared_ptrIN7testing8internal26ParameterizedTestSuiteInfoI18AccountBalanceTestE8TestInfoEEC2IS5_vEEPT_
FN:359,360,_ZNSt10shared_ptrIN7testing10OnceActionIFivEEEEC2EOS4_
FN:359,360,_ZNSt10shared_ptrIN7testing8internal12ReturnActionIiE4ImplIiEEEC2EOS6_
FN:359,360,_ZNSt10shared_ptrIN7testing8internal15ExpectationBaseEEC2EOS3_
FN:359,360,_ZNSt10shared_ptrIN7testing8internal26ParameterizedTestSuiteInfoI18AccountBalanceTestE8TestInfoEEC2EOS6_
FN:414,414,_ZNSt10shared_ptrIKN7testing20CardinalityInterfaceEEaSERKS3_
FN:463,465,_ZNSt10shared_ptrIN7testing10OnceActionIFivEEEEC2ISaIvEJS3_EEESt20_Sp_alloc_shared_tagIT_EDpOT0_
FN:463,465,_ZNSt10shared_ptrIN7testing8internal12ReturnActionIiE4ImplIiEEEC2ISaIvEJS5_EEESt20_Sp_alloc_shared_tagIT_EDpOT0_
FNDA:2,_ZSt11make_sharedIN7testing10OnceActionIFivEEEJS3_EESt10shared_ptrINSt9enable_ifIXntsrSt8is_arrayIT_E5valueES7_E4typeEEDpOT0_
FNDA:2,_ZSt11make_sharedIN7testing8internal12ReturnActionIiE4ImplIiEEJS5_EESt10shared_ptrINSt9enable_ifIXntsrSt8is_arrayIT_E5valueES9_E4typeEEDpOT0_
FNDA:2,_ZNSt10shared_ptrIN7testing10OnceActionIFivEEEEC2ERKS4_
FNDA:2,_ZNSt10shared_ptrIN7testing8internal12ReturnActionIiE4ImplIiE5StateEEC2ERKS7_
FNDA:0,_ZNSt10shared_ptrIN7testing8internal12ReturnActionIiE4ImplIiEEEC2ERKS6_
FNDA:47,_ZNSt10shared_ptrIN7testing8internal15ExpectationBaseEEC2ERKS3_
FNDA:1,_ZNSt10shared_ptrIN7testing8internal26ParameterizedTestSuiteInfoI18AccountBalanceTestE8TestInfoEEC2ERKS6_
FNDA:1,_ZNSt10shared_ptrIKN7testing8internal23ParamGeneratorInterfaceIiEEEC2IS3_vEEPT_
FNDA:2,_ZNSt10shared_ptrIN7testing8internal12ReturnActionIiE4ImplIiE5StateEEC2IS6_vEEPT_
FNDA:2,_ZNSt10shared_ptrIN7testing8internal15ExpectationBaseEEC2INS1_16TypedExpectationIFivEEEvEEPT_
FNDA:3,_ZNSt10shared_ptrIN7testing8internal15ExpectationBaseEEC2INS1_16TypedExpectationIFvR7AccountS7_iEEEvEEPT_
FNDA:4,_ZNSt10shared_ptrIN7testing8internal15ExpectationBaseEEC2INS1_16TypedExpectationIFviEEEvEEPT_
FNDA:8,_ZNSt10shared_ptrIN7testing8internal15ExpectationBaseEEC2INS1_16TypedExpectationIFvvEEEvEEPT_
FNDA:1,_ZNSt10shared_ptrIN7testing8internal26ParameterizedTestSuiteInfoI18AccountBalanceTestE8TestInfoEEC2IS5_vEEPT_
FNDA:2,_ZNSt10shared_ptrIN7testing10OnceActionIFivEEEEC2EOS4_
FNDA:2,_ZNSt10shared_ptrIN7testing8internal12ReturnActionIiE4ImplIiEEEC2EOS6_
FNDA:1,_ZNSt10shared_ptrIN7testing8internal15ExpectationBaseEEC2EOS3_
FNDA:1,_ZNSt10shared_ptrIN7testing8internal26ParameterizedTestSuiteInfoI18AccountBalanceTestE8TestInfoEEC2EOS6_
FNDA:3,_ZNSt10shared_ptrIKN7testing20CardinalityInterfaceEEaSERKS3_
FNDA:2,_ZNSt10shared_ptrIN7testing10OnceActionIFivEEEEC2ISaIvEJS3_EEESt20_Sp_alloc_shared_tagIT_EDpOT0_
FNDA:2,_ZNSt10shared_ptrIN7testing8internal12ReturnActionIiE4ImplIiEEEC2ISaIvEJS5_EEESt20_Sp_alloc_shared_tagIT_EDpOT0_
FNF:21
FNH:20
DA:204,52
DA:214,21
DA:359,6
DA:360,6
DA:414,3
DA:463,4
DA:464,4
DA:465,4
DA:1005,4
DA:1010,8
LF:10
LH:10
end_of_record
TN:
SF:/usr/include/c++/13/bits/shared_ptr_base.h
FN:1068,1072,_ZNSt14__shared_countILN9__gnu_cxx12_Lock_policyE2EED2Ev
FN:1074,1079,_ZNSt14__shared_countILN9__gnu_cxx12_Lock_policyE2EEC2ERKS2_
FN:1082,1094,_ZNSt14__shared_countILN9__gnu_cxx12_Lock_policyE2EEaSERKS2_
FN:1097,1102,_ZNSt14__shared_countILN9__gnu_cxx12_Lock_policyE2EE7_M_swapERS2_
FN:129,130,_ZNSt16_Sp_counted_baseILN9__gnu_cxx12_Lock_policyE2EEC2Ev
FN:133,134,_ZNSt16_Sp_counted_baseILN9__gnu_cxx12_Lock_policyE2EED0Ev
FN:133,134,_ZNSt16_Sp_counted_baseILN9__gnu_cxx12_Lock_policyE2EED2Ev
FN:1347,1351,_ZNKSt19__shared_ptr_accessIN7testing10OnceActionIFivEEELN9__gnu_cxx12_Lock_policyE2ELb0ELb0EEdeEv
FN:1347,1351,_ZNKSt19__shared_ptr_accessIN7testing8internal12ReturnActionIiE4ImplIiEELN9__gnu_cxx12_Lock_policyE2ELb0ELb0EEdeEv
FN:1354,1358,_ZNKSt19__shared_ptr_accessIKN7testing20CardinalityInterfaceELN9__gnu_cxx12_Lock_policyE2ELb0ELb0EEptEv
FN:1354,1358,_ZNKSt19__shared_ptr_accessIKN7testing8internal23ParamGeneratorInterfaceIiEELN9__gnu_cxx12_Lock_policyE2ELb0ELb0EEptEv
FN:1354,1358,_ZNKSt19__shared_ptr_accessIN7testing8internal12ReturnActionIiE4ImplIiE5StateELN9__gnu_cxx12_Lock_policyE2ELb0ELb0EEptEv
FN:1354,1358,_ZNKSt19__shared_ptr_accessIN7testing8internal15ExpectationBaseELN9__gnu_cxx12_Lock_policyE2ELb0ELb0EEptEv
FN:1354,1358,_ZNKSt19__shared_ptr_accessIN7testing8internal26ParameterizedTestSuiteInfoI18AccountBalanceTestE8TestInfoELN9__gnu_cxx12_Lock_policyE2ELb0ELb0EEptEv
FN:1362,1363,_ZNKSt19__shared_ptr_accessIKN7testing20CardinalityInterfaceELN9__gnu_cxx12_Lock_policyE2ELb0ELb0EE6_M_getEv
FN:1362,1363,_ZNKSt19__shared_ptr_accessIKN7testing8internal23ParamGeneratorInterfaceIiEELN9__gnu_cxx12_Lock_policyE2ELb0ELb0EE6_M_getEv
FN:1362,1363,_ZNKSt19__shared_ptr_accessIN7testing10OnceActionIFivEEELN9__gnu_cxx12_Lock_policyE2ELb0ELb0EE6_M_getEv
FN:1362,1363,_ZNKSt19__shared_ptr_accessIN7testing8internal12ReturnActionIiE4ImplIiE5StateELN9__gnu_cxx12_Lock_policyE2ELb0ELb0EE6_M_getEv
FN:1362,1363,_ZNKSt19__shared_ptr_accessIN7testing8internal12ReturnActionIiE4ImplIiEELN9__gnu_cxx12_Lock_policyE2ELb0ELb0EE6_M_getEv
FN:1362,1363,_ZNKSt19__shared_ptr_accessIN7testing8internal15ExpectationBaseELN9__gnu_cxx12_Lock_policyE2ELb0ELb0EE6_M_getEv
FN:1362,1363,_ZNKSt19__shared_ptr_accessIN7testing8internal26ParameterizedTestSuiteInfoI18AccountBalanceTestE8TestInfoELN9__gnu_cxx12_Lock_policyE2ELb0ELb0EE6_M_getEv
FN:143,144,_ZNSt16_Sp_counted_baseILN9__gnu_cxx12_Lock_policyE2EE10_M_destroyEv
FN:1468,1474,_ZNSt12__shared_ptrIKN7testing8internal23ParamGeneratorInterfaceIiEELN9__gnu_cxx12_Lock_policyE2EEC2IS3_vEEPT_
FN:1468,1474,_ZNSt12__shared_ptrIN7testing8internal12ReturnActionIiE4ImplIiE5StateELN9__gnu_cxx12_Lock_policyE2EEC2IS6_vEEPT_
FN:1468,1474,_ZNSt12__shared_ptrIN7testing8internal15ExpectationBaseELN9__gnu_cxx12_Lock_policyE2EEC2INS1_16TypedExpectationIFivEEEvEEPT_
FN:1468,1474,_ZNSt12__shared_ptrIN7testing8internal15ExpectationBaseELN9__gnu_cxx12_Lock_policyE2EEC2INS1_16TypedExpectationIFvR7AccountS9_iEEEvEEPT_
FN:1468,1474,_ZNSt12__shared_ptrIN7testing8internal15ExpectationBaseELN9__gnu_cxx12_Lock_policyE2EEC2INS1_16TypedExpectationIFviEEEvEEPT_
FN:1468,1474,_ZNSt12__shared_ptrIN7testing8internal15ExpectationBaseELN9__gnu_cxx12_Lock_policyE2EEC2INS1_16TypedExpectationIFvvEEEvEEPT_
FN:1468,1474,_ZNSt12__shared_ptrIN7testing8internal26ParameterizedTestSuiteInfoI18AccountBalanceTestE8TestInfoELN9__gnu_cxx12_Lock_policyE2EEC2IS5_vEEPT_
FN:151,152,_ZNSt16_Sp_counted_baseILN9__gnu_cxx12_Lock_policyE2EE15_M_add_ref_copyEv
FN:1522,1522,_ZNSt12__shared_ptrIN7testing10OnceActionIFivEEELN9__gnu_cxx12_Lock_policyE2EEC2ERKS6_
FN:1522,1522,_ZNSt12__shared_ptrIN7testing8internal12ReturnActionIiE4ImplIiE5StateELN9__gnu_cxx12_Lock_policyE2EEC2ERKS9_
FN:1522,1522,_ZNSt12__shared_ptrIN7testing8internal12ReturnActionIiE4ImplIiEELN9__gnu_cxx12_Lock_policyE2EEC2ERKS8_
FN:1522,1522,_ZNSt12__shared_ptrIN7testing8internal15ExpectationBaseELN9__gnu_cxx12_Lock_policyE2EEC2ERKS5_
FN:1522,1522,_ZNSt12__shared_ptrIN7testing8internal26ParameterizedTestSuiteInfoI18AccountBalanceTestE8TestInfoELN9__gnu_cxx12_Lock_policyE2EEC2ERKS8_
FN:1523,1523,_ZNSt12__shared_ptrIKN7testing20CardinalityInterfaceELN9__gnu_cxx12_Lock_policyE2EEaSERKS5_
FN:1524,1524,_ZNSt12__shared_ptrIKN7testing20CardinalityInterfaceELN9__gnu_cxx12_Lock_policyE2EED2Ev
FN:1524,1524,_ZNSt12__shared_ptrIKN7testing8internal23ParamGeneratorInterfaceIiEELN9__gnu_cxx12_Lock_policyE2EED2Ev
FN:1524,1524,_ZNSt12__shared_ptrIN7testing10OnceActionIFivEEELN9__gnu_cxx12_Lock_policyE2EED2Ev
FN:1524,1524,_ZNSt12__shared_ptrIN7testing8internal12ReturnActionIiE4ImplIiE5StateELN9__gnu_cxx12_Lock_policyE2EED2Ev
FN:1524,1524,_ZNSt12__shared_ptrIN7testing8internal12ReturnActionIiE4ImplIiEELN9__gnu_cxx12_Lock_policyE2EED2Ev
FN:1524,1524,_ZNSt12__shared_ptrIN7testing8internal15ExpectationBaseELN9__gnu_cxx12_Lock_policyE2EED2Ev
FN:1524,1524,_ZNSt12__shared_ptrIN7testing8internal26ParameterizedTestSuiteInfoI18AccountBalanceTestE8TestInfoELN9__gnu_cxx12_Lock_policyE2EED2Ev
FN:1531,1536,_ZNSt12__shared_ptrIN7testing10OnceActionIFivEEELN9__gnu_cxx12_Lock_policyE2EEC2EOS6_
FN:1531,1536,_ZNSt12__shared_ptrIN7testing8internal12ReturnActionIiE4ImplIiEELN9__gnu_cxx12_Lock_policyE2EEC2EOS8_
FN:1531,1536,_ZNSt12__shared_ptrIN7testing8internal15ExpectationBaseELN9__gnu_cxx12_Lock_policyE2EEC2EOS5_
FN:1531,1536,_ZNSt12__shared_ptrIN7testing8internal26ParameterizedTestSuiteInfoI18AccountBalanceTestE8TestInfoELN9__gnu_cxx12_Lock_policyE2EEC2EOS8_
FN:1665,1666,_ZNKSt12__shared_ptrIKN7testing20CardinalityInterfaceELN9__gnu_cxx12_Lock_policyE2EE3getEv
FN:1665,1666,_ZNKSt12__shared_ptrIKN7testing8internal23ParamGeneratorInterfaceIiEELN9__gnu_cxx12_Lock_policyE2EE3getEv
FN:1665,1666,_ZNKSt12__shared_ptrIN7testing10OnceActionIFivEEELN9__gnu_cxx12_Lock_policyE2EE3getEv
FN:1665,1666,_ZNKSt12__shared_ptrIN7testing8internal12ReturnActionIiE4ImplIiE5StateELN9__gnu_cxx12_Lock_policyE2EE3getEv
FN:1665,1666,_ZNKSt12__shared_ptrIN7testing8internal12ReturnActionIiE4ImplIiEELN9__gnu_cxx12_Lock_policyE2EE3getEv
FN:1665,1666,_ZNKSt12__shared_ptrIN7testing8internal15ExpectationBaseELN9__gnu_cxx12_Lock_policyE2EE3getEv
FN:1665,1666,_ZNKSt12__shared_ptrIN7testing8internal26ParameterizedTestSuiteInfoI18AccountBalanceTestE8TestInfoELN9__gnu_cxx12_Lock_policyE2EE3getEv
FN:1711,1713,_ZNSt12__shared_ptrIN7testing10OnceActionIFivEEELN9__gnu_cxx12_Lock_policyE2EEC2ISaIvEJS3_EEESt20_Sp_alloc_shared_tagIT_EDpOT0_
FN:1711,1713,_ZNSt12__shared_ptrIN7testing8internal12ReturnActionIiE4ImplIiEELN9__gnu_cxx12_Lock_policyE2EEC2ISaIvEJS5_EEESt20_Sp_alloc_shared_tagIT_EDpOT0_
FN:172,193,_ZNSt16_Sp_counted_baseILN9__gnu_cxx12_Lock_policyE2EE19_M_release_last_useEv
FN:1765,1766,_ZNSt12__shared_ptrIKN7testing8internal23ParamGeneratorInterfaceIiEELN9__gnu_cxx12_Lock_policyE2EE31_M_enable_shared_from_this_withIS3_S3_EENSt9enable_ifIXntsrNS7_15__has_esft_baseIT0_vEE5valueEvE4typeEPT_
FN:1765,1766,_ZNSt12__shared_ptrIN7testing10OnceActionIFivEEELN9__gnu_cxx12_Lock_policyE2EE31_M_enable_shared_from_this_withIS3_S3_EENSt9enable_ifIXntsrNS6_15__has_esft_baseIT0_vEE5valueEvE4typeEPT_
FN:1765,1766,_ZNSt12__shared_ptrIN7testing8internal12ReturnActionIiE4ImplIiE5StateELN9__gnu_cxx12_Lock_policyE2EE31_M_enable_shared_from_this_withIS6_S6_EENSt9enable_ifIXntsrNS9_15__has_esft_baseIT0_vEE5valueEvE4typeEPT_
FN:1765,1766,_ZNSt12__shared_ptrIN7testing8internal12ReturnActionIiE4ImplIiEELN9__gnu_cxx12_Lock_policyE2EE31_M_enable_shared_from_this_withIS5_S5_EENSt9enable_ifIXntsrNS8_15__has_esft_baseIT0_vEE5valueEvE4typeEPT_
FN:1765,1766,_ZNSt12__shared_ptrIN7testing8internal15ExpectationBaseELN9__gnu_cxx12_Lock_policyE2EE31_M_enable_shared_from_this_withINS1_16TypedExpectationIFivEEES9_EENSt9enable_ifIXntsrNS5_15__has_esft_baseIT0_vEE5valueEvE4typeEPT_
FN:1765,1766,_ZNSt12__shared_ptrIN7testing8internal15ExpectationBaseELN9__gnu_cxx12_Lock_policyE2EE31_M_enable_shared_from_this_withINS1_16TypedExpectationIFvR7AccountS9_iEEESB_EENSt9enable_ifIXntsrNS5_15__has_esft_baseIT0_vEE5valueEvE4typeEPT_
FN:1765,1766,_ZNSt12__shared_ptrIN7testing8internal15ExpectationBaseELN9__gnu_cxx12_Lock_policyE2EE31_M_enable_shared_from_this_withINS1_16TypedExpectationIFviEEES9_EENSt9enable_ifIXntsrNS5_15__has_esft_baseIT0_vEE5valueEvE4typeEPT_
FN:1765,1766,_ZNSt12__shared_ptrIN7testing8internal15ExpectationBaseELN9__gnu_cxx12_Lock_policyE2EE31_M_enable_shared_from_this_withINS1_16TypedExpectationIFvvEEES9_EENSt9enable_ifIXntsrNS5_15__has_esft_baseIT0_vEE5valueEvE4typeEPT_
FN:1765,1766,_ZNSt12__shared_ptrIN7testing8internal26ParameterizedTestSuiteInfoI18AccountBalanceTestE8TestInfoELN9__gnu_cxx12_Lock_policyE2EE31_M_enable_shared_from_this_withIS5_S5_EENSt9enable_ifIXntsrNS8_15__has_esft_baseIT0_vEE5valueEvE4typeEPT_
FN:198,199,_ZNSt16_Sp_counted_baseILN9__gnu_cxx12_Lock_policyE2EE24_M_release_last_use_coldEv
FN:317,363,_ZNSt16_Sp_counted_baseILN9__gnu_cxx12_Lock_policyE2EE10_M_releaseEv
FN:423,424,_ZNSt15_Sp_counted_ptrIPN7testing8internal12ReturnActionIiE4ImplIiE5StateELN9__gnu_cxx12_Lock_policyE2EEC2ES7_
FN:423,424,_ZNSt15_Sp_counted_ptrIPN7testing8internal16TypedExpectationIFivEEELN9__gnu_cxx12_Lock_policyE2EEC2ES5_
FN:423,424,_ZNSt15_Sp_counted_ptrIPN7testing8internal16TypedExpectationIFvR7AccountS4_iEEELN9__gnu_cxx12_Lock_policyE2EEC2ES7_
FN:423,424,_ZNSt15_Sp_counted_ptrIPN7testing8internal16TypedExpectationIFviEEELN9__gnu_cxx12_Lock_policyE2EEC2ES5_
FN:423,424,_ZNSt15_Sp_counted_ptrIPN7testing8internal16TypedExpectationIFvvEEELN9__gnu_cxx12_Lock_policyE2EEC2ES5_
FN:423,424,_ZNSt15_Sp_counted_ptrIPN7testing8internal23ParamGeneratorInterfaceIiEELN9__gnu_cxx12_Lock_policyE2EEC2ES4_
FN:423,424,_ZNSt15_Sp_counted_ptrIPN7testing8internal26ParameterizedTestSuiteInfoI18AccountBalanceTestE8TestInfoELN9__gnu_cxx12_Lock_policyE2EEC2ES6_
FN:427,428,_ZNSt15_Sp_counted_ptrIPN7testing8internal12ReturnActionIiE4ImplIiE5StateELN9__gnu_cxx12_Lock_policyE2EE10_M_disposeEv
FN:427,428,_ZNSt15_Sp_counted_ptrIPN7testing8internal16TypedExpectationIFivEEELN9__gnu_cxx12_Lock_policyE2EE10_M_disposeEv
FN:427,428,_ZNSt15_Sp_counted_ptrIPN7testing8internal16TypedExpectationIFvR7AccountS4_iEEELN9__gnu_cxx12_Lock_policyE2EE10_M_disposeEv
FN:427,428,_ZNSt15_Sp_counted_ptrIPN7testing8internal16TypedExpectationIFviEEELN9__gnu_cxx12_Lock_policyE2EE10_M_disposeEv
FN:427,428,_ZNSt15_Sp_counted_ptrIPN7testing8internal16TypedExpectationIFvvEEELN9__gnu_cxx12_Lock_policyE2EE10_M_disposeEv
FN:427,428,_ZNSt15_Sp_counted_ptrIPN7testing8internal23ParamGeneratorInterfaceIiEELN9__gnu_cxx12_Lock_policyE2EE10_M_disposeEv
FN:427,428,_ZNSt15_Sp_counted_ptrIPN7testing8internal26ParameterizedTestSuiteInfoI18AccountBalanceTestE8TestInfoELN9__gnu_cxx12_Lock_policyE2EE10_M_disposeEv
FN:431,432,_ZNSt15_Sp_counted_ptrIPN7testing8internal12ReturnActionIiE4ImplIiE5StateELN9__gnu_cxx12_Lock_policyE2EE10_M_destroyEv
FN:431,432,_ZNSt15_Sp_counted_ptrIPN7testing8internal16TypedExpectationIFivEEELN9__gnu_cxx12_Lock_policyE2EE10_M_destroyEv
FN:431,432,_ZNSt15_Sp_counted_ptrIPN7testing8internal16TypedExpectationIFvR7AccountS4_iEEELN9__gnu_cxx12_Lock_policyE2EE10_M_destroyEv
FN:431,432,_ZNSt15_Sp_counted_ptrIPN7testing8internal16TypedExpectationIFviEEELN9__gnu_cxx12_Lock_policyE2EE10_M_destroyEv
FN:431,432,_ZNSt15_Sp_counted_ptrIPN7testing8internal16TypedExpectationIFvvEEELN9__gnu_cxx12_Lock_policyE2EE10_M_destroyEv
FN:431,432,_ZNSt15_Sp_counted_ptrIPN7testing8internal23ParamGeneratorInterfaceIiEELN9__gnu_cxx12_Lock_policyE2EE10_M_destroyEv
FN:431,432,_ZNSt15_Sp_counted_ptrIPN7testing8internal26ParameterizedTestSuiteInfoI18AccountBalanceTestE8TestInfoELN9__gnu_cxx12_Lock_policyE2EE10_M_destroyEv
FN:435,436,_ZNSt15_Sp_counted_ptrIPN7testing8internal12ReturnActionIiE4ImplIiE5StateELN9__gnu_cxx12_Lock_policyE2EE14_M_get_deleterERKSt9type_info
FN:435,436,_ZNSt15_Sp_counted_ptrIPN7testing8internal16TypedExpectationIFivEEELN9__gnu_cxx12_Lock_policyE2EE14_M_get_deleterERKSt9type_info
FN:435,436,_ZNSt15_Sp_counted_ptrIPN7testing8internal16TypedExpectationIFvR7AccountS4_iEEELN9__gnu_cxx12_Lock_policyE2EE14_M_get_deleterERKSt9type_info
FN:435,436,_ZNSt15_Sp_counted_ptrIPN7testing8internal16TypedExpectationIFviEEELN9__gnu_cxx12_Lock_policyE2EE14_M_get_deleterERKSt9type_info
FN:435,436,_ZNSt15_Sp_counted_ptrIPN7testing8internal16TypedExpectationIFvvEEELN9__gnu_cxx12_Lock_policyE2EE14_M_get_deleterERKSt9type_info
FN:435,436,_ZNSt15_Sp_counted_ptrIPN7testing8internal23ParamGeneratorInterfaceIiEELN9__gnu_cxx12_Lock_policyE2EE14_M_get_deleterERKSt9type_info
FN:435,436,_ZNSt15_Sp_counted_ptrIPN7testing8internal26ParameterizedTestSuiteInfoI18AccountBalanceTestE8TestInfoELN9__gnu_cxx12_Lock_policyE2EE14_M_get_deleterERKSt9type_info
FN:470,470,_ZNSt14_Sp_ebo_helperILi0ESaIvELb1EEC2ERKS0_
FN:474,474,_ZNSt14_Sp_ebo_helperILi0ESaIvELb1EE6_S_getERS1_
FN:564,568,_ZNSt19_Sp_make_shared_tag5_S_tiEv
FN:587,587,_ZNSt23_Sp_counted_ptr_inplaceIN7testing10OnceActionIFivEEESaIvELN9__gnu_cxx12_Lock_policyE2EE5_ImplC2ES4_
FN:587,587,_ZNSt23_Sp_counted_ptr_inplaceIN7testing8internal12ReturnActionIiE4ImplIiEESaIvELN9__gnu_cxx12_Lock_policyE2EE5_ImplC2ES6_
FN:589,589,_ZNSt23_Sp_counted_ptr_inplaceIN7testing10OnceActionIFivEEESaIvELN9__gnu_cxx12_Lock_policyE2EE5_Impl8_M_allocEv
FN:589,589,_ZNSt23_Sp_counted_ptr_inplaceIN7testing8internal12ReturnActionIiE4ImplIiEESaIvELN9__gnu_cxx12_Lock_policyE2EE5_Impl8_M_allocEv
FN:599,606,_ZNSt23_Sp_counted_ptr_inplaceIN7testing10OnceActionIFivEEESaIvELN9__gnu_cxx12_Lock_policyE2EEC2IJS3_EEES4_DpOT_
FN:599,606,_ZNSt23_Sp_counted_ptr_inplaceIN7testing8internal12ReturnActionIiE4ImplIiEESaIvELN9__gnu_cxx12_Lock_policyE2EEC2IJS5_EEES6_DpOT_
FN:608,608,_ZNSt23_Sp_counted_ptr_inplaceIN7testing10OnceActionIFivEEESaIvELN9__gnu_cxx12_Lock_policyE2EED0Ev
FN:608,608,_ZNSt23_Sp_counted_ptr_inplaceIN7testing10OnceActionIFivEEESaIvELN9__gnu_cxx12_Lock_policyE2EED2Ev
FN:608,608,_ZNSt23_Sp_counted_ptr_inplaceIN7testing8internal12ReturnActionIiE4ImplIiEESaIvELN9__gnu_cxx12_Lock_policyE2EED0Ev
FN:608,608,_ZNSt23_Sp_counted_ptr_inplaceIN7testing8internal12ReturnActionIiE4ImplIiEESaIvELN9__gnu_cxx12_Lock_policyE2EED2Ev
FN:611,614,_ZNSt23_Sp_counted_ptr_inplaceIN7testing10OnceActionIFivEEESaIvELN9__gnu_cxx12_Lock_policyE2EE10_M_disposeEv
FN:611,614,_ZNSt23_Sp_counted_ptr_inplaceIN7testing8internal12ReturnActionIiE4ImplIiEESaIvELN9__gnu_cxx12_Lock_policyE2EE10_M_disposeEv
FN:618,623,_ZNSt23_Sp_counted_ptr_inplaceIN7testing10OnceActionIFivEEESaIvELN9__gnu_cxx12_Lock_policyE2EE10_M_destroyEv
FN:618,623,_ZNSt23_Sp_counted_ptr_inplaceIN7testing8internal12ReturnActionIiE4ImplIiEESaIvELN9__gnu_cxx12_Lock_policyE2EE10_M_destroyEv
FN:631,648,_ZNSt23_Sp_counted_ptr_inplaceIN7testing10OnceActionIFivEEESaIvELN9__gnu_cxx12_Lock_policyE2EE14_M_get_deleterERKSt9type_info
FN:631,648,_ZNSt23_Sp_counted_ptr_inplaceIN7testing8internal12ReturnActionIiE4ImplIiEESaIvELN9__gnu_cxx12_Lock_policyE2EE14_M_get_deleterERKSt9type_info
FN:650,650,_ZNSt23_Sp_counted_ptr_inplaceIN7testing10OnceActionIFivEEESaIvELN9__gnu_cxx12_Lock_policyE2EE6_M_ptrEv
FN:650,650,_ZNSt23_Sp_counted_ptr_inplaceIN7testing8internal12ReturnActionIiE4ImplIiEESaIvELN9__gnu_cxx12_Lock_policyE2EE6_M_ptrEv
FN:908,909,_ZNSt14__shared_countILN9__gnu_cxx12_Lock_policyE2EEC2Ev
FN:913,924,_ZNSt14__shared_countILN9__gnu_cxx12_Lock_policyE2EEC2IPN7testing8internal12ReturnActionIiE4ImplIiE5StateEEET_
FN:913,924,_ZNSt14__shared_countILN9__gnu_cxx12_Lock_policyE2EEC2IPN7testing8internal16TypedExpectationIFivEEEEET_
FN:913,924,_ZNSt14__shared_countILN9__gnu_cxx12_Lock_policyE2EEC2IPN7testing8internal16TypedExpectationIFvR7AccountS8_iEEEEET_
FN:913,924,_ZNSt14__shared_countILN9__gnu_cxx12_Lock_policyE2EEC2IPN7testing8internal16TypedExpectationIFviEEEEET_
FN:913,924,_ZNSt14__shared_countILN9__gnu_cxx12_Lock_policyE2EEC2IPN7testing8internal16TypedExpectationIFvvEEEEET_
FN:913,924,_ZNSt14__shared_countILN9__gnu_cxx12_Lock_policyE2EEC2IPN7testing8internal23ParamGeneratorInterfaceIiEEEET_
FN:913,924,_ZNSt14__shared_countILN9__gnu_cxx12_Lock_policyE2EEC2IPN7testing8internal26ParameterizedTestSuiteInfoI18AccountBalanceTestE8TestInfoEEET_
FN:927,929,_ZNSt14__shared_countILN9__gnu_cxx12_Lock_policyE2EEC2IPN7testing8internal12ReturnActionIiE4ImplIiE5StateEEET_St17integral_constantIbLb0EE
FN:927,929,_ZNSt14__shared_countILN9__gnu_cxx12_Lock_policyE2EEC2IPN7testing8internal16TypedExpectationIFivEEEEET_St17integral_constantIbLb0EE
FN:927,929,_ZNSt14__shared_countILN9__gnu_cxx12_Lock_policyE2EEC2IPN7testing8internal16TypedExpectationIFvR7AccountS8_iEEEEET_St17integral_constantIbLb0EE
FN:927,929,_ZNSt14__shared_countILN9__gnu_cxx12_Lock_policyE2EEC2IPN7testing8internal16TypedExpectationIFviEEEEET_St17integral_constantIbLb0EE
FN:927,929,_ZNSt14__shared_countILN9__gnu_cxx12_Lock_policyE2EEC2IPN7testing8internal16TypedExpectationIFvvEEEEET_St17integral_constantIbLb0EE
FN:927,929,_ZNSt14__shared_countILN9__gnu_cxx12_Lock_policyE2EEC2IPN7testing8internal23ParamGeneratorInterfaceIiEEEET_St17integral_constantIbLb0EE
FN:927,929,_ZNSt14__shared_countILN9__gnu_cxx12_Lock_policyE2EEC2IPN7testing8internal26ParameterizedTestSuiteInfoI18AccountBalanceTestE8TestInfoEEET_St17integral_constantIbLb0EE
FN:964,976,_ZNSt14__shared_countILN9__gnu_cxx12_Lock_policyE2EEC2IN7testing10OnceActionIFivEEESaIvEJS7_EEERPT_St20_Sp_alloc_shared_tagIT0_EDpOT1_
FN:964,976,_ZNSt14__shared_countILN9__gnu_cxx12_Lock_policyE2EEC2IN7testing8internal12ReturnActionIiE4ImplIiEESaIvEJS9_EEERPT_St20_Sp_alloc_shared_tagIT0_EDpOT1_
FNDA:107,_ZNSt14__shared_countILN9__gnu_cxx12_Lock_policyE2EED2Ev
FNDA:52,_ZNSt14__shared_countILN9__gnu_cxx12_Lock_policyE2EEC2ERKS2_
FNDA:19,_ZNSt14__shared_countILN9__gnu_cxx12_Lock_policyE2EEaSERKS2_
FNDA:6,_ZNSt14__shared_countILN9__gnu_cxx12_Lock_policyE2EE7_M_swapERS2_
FNDA:47,_ZNSt16_Sp_counted_baseILN9__gnu_cxx12_Lock_policyE2EEC2Ev
FNDA:0,_ZNSt16_Sp_counted_baseILN9__gnu_cxx12_Lock_policyE2EED0Ev
FNDA:47,_ZNSt16_Sp_counted_baseILN9__gnu_cxx12_Lock_policyE2EED2Ev
FNDA:2,_ZNKSt19__shared_ptr_accessIN7testing10OnceActionIFivEEELN9__gnu_cxx12_Lock_policyE2ELb0ELb0EEdeEv
FNDA:2,_ZNKSt19__shared_ptr_accessIN7testing8internal12ReturnActionIiE4ImplIiEELN9__gnu_cxx12_Lock_policyE2ELb0ELb0EEdeEv
FNDA:142,_ZNKSt19__shared_ptr_accessIKN7testing20CardinalityInterfaceELN9__gnu_cxx12_Lock_policyE2ELb0ELb0EEptEv
FNDA:6,_ZNKSt19__shared_ptr_accessIKN7testing8internal23ParamGeneratorInterfaceIiEELN9__gnu_cxx12_Lock_policyE2ELb0ELb0EEptEv
FNDA:2,_ZNKSt19__shared_ptr_accessIN7testing8internal12ReturnActionIiE4ImplIiE5StateELN9__gnu_cxx12_Lock_policyE2ELb0ELb0EEptEv
FNDA:14,_ZNKSt19__shared_ptr_accessIN7testing8internal15ExpectationBaseELN9__gnu_cxx12_Lock_policyE2ELb0ELb0EEptEv
FNDA:17,_ZNKSt19__shared_ptr_accessIN7testing8internal26ParameterizedTestSuiteInfoI18AccountBalanceTestE8TestInfoELN9__gnu_cxx12_Lock_policyE2ELb0ELb0EEptEv
FNDA:142,_ZNKSt19__shared_ptr_accessIKN7testing20CardinalityInterfaceELN9__gnu_cxx12_Lock_policyE2ELb0ELb0EE6_M_getEv
FNDA:6,_ZNKSt19__shared_ptr_accessIKN7testing8internal23ParamGeneratorInterfaceIiEELN9__gnu_cxx12_Lock_policyE2ELb0ELb0EE6_M_getEv
FNDA:2,_ZNKSt19__shared_ptr_accessIN7testing10OnceActionIFivEEELN9__gnu_cxx12_Lock_policyE2ELb0ELb0EE6_M_getEv
FNDA:2,_ZNKSt19__shared_ptr_accessIN7testing8internal12ReturnActionIiE4ImplIiE5StateELN9__gnu_cxx12_Lock_policyE2ELb0ELb0EE6_M_getEv
FNDA:2,_ZNKSt19__shared_ptr_accessIN7testing8internal12ReturnActionIiE4ImplIiEELN9__gnu_cxx12_Lock_policyE2ELb0ELb0EE6_M_getEv
FNDA:14,_ZNKSt19__shared_ptr_accessIN7testing8internal15ExpectationBaseELN9__gnu_cxx12_Lock_policyE2ELb0ELb0EE6_M_getEv
FNDA:17,_ZNKSt19__shared_ptr_accessIN7testing8internal26ParameterizedTestSuiteInfoI18AccountBalanceTestE8TestInfoELN9__gnu_cxx12_Lock_policyE2ELb0ELb0EE6_M_getEv
FNDA:0,_ZNSt16_Sp_counted_baseILN9__gnu_cxx12_Lock_policyE2EE10_M_destroyEv
FNDA:1,_ZNSt12__shared_ptrIKN7testing8internal23ParamGeneratorInterfaceIiEELN9__gnu_cxx12_Lock_policyE2EEC2IS3_vEEPT_
FNDA:2,_ZNSt12__shared_ptrIN7testing8internal12ReturnActionIiE4ImplIiE5StateELN9__gnu_cxx12_Lock_policyE2EEC2IS6_vEEPT_
FNDA:2,_ZNSt12__shared_ptrIN7testing8internal15ExpectationBaseELN9__gnu_cxx12_Lock_policyE2EEC2INS1_16TypedExpectationIFivEEEvEEPT_
FNDA:3,_ZNSt12__shared_ptrIN7testing8internal15ExpectationBaseELN9__gnu_cxx12_Lock_policyE2EEC2INS1_16TypedExpectationIFvR7AccountS9_iEEEvEEPT_
FNDA:4,_ZNSt12__shared_ptrIN7testing8internal15ExpectationBaseELN9__gnu_cxx12_Lock_policyE2EEC2INS1_16TypedExpectationIFviEEEvEEPT_
FNDA:8,_ZNSt12__shared_ptrIN7testing8internal15ExpectationBaseELN9__gnu_cxx12_Lock_policyE2EEC2INS1_16TypedExpectationIFvvEEEvEEPT_
FNDA:1,_ZNSt12__shared_ptrIN7testing8internal26ParameterizedTestSuiteInfoI18AccountBalanceTestE8TestInfoELN9__gnu_cxx12_Lock_policyE2EEC2IS5_vEEPT_
FNDA:71,_ZNSt16_Sp_counted_baseILN9__gnu_cxx12_Lock_policyE2EE15_M_add_ref_copyEv
FNDA:2,_ZNSt12__shared_ptrIN7testing10OnceActionIFivEEELN9__gnu_cxx12_Lock_policyE2EEC2ERKS6_
FNDA:2,_ZNSt12__shared_ptrIN7testing8internal12ReturnActionIiE4ImplIiE5StateELN9__gnu_cxx12_Lock_policyE2EEC2ERKS9_
FNDA:0,_ZNSt12__shared_ptrIN7testing8internal12ReturnActionIiE4ImplIiEELN9__gnu_cxx12_Lock_policyE2EEC2ERKS8_
FNDA:47,_ZNSt12__shared_ptrIN7testing8internal15ExpectationBaseELN9__gnu_cxx12_Lock_policyE2EEC2ERKS5_
FNDA:1,_ZNSt12__shared_ptrIN7testing8internal26ParameterizedTestSuiteInfoI18AccountBalanceTestE8TestInfoELN9__gnu_cxx12_Lock_policyE2EEC2ERKS8_
FNDA:3,_ZNSt12__shared_ptrIKN7testing20CardinalityInterfaceELN9__gnu_cxx12_Lock_policyE2EEaSERKS5_
FNDA:20,_ZNSt12__shared_ptrIKN7testing20CardinalityInterfaceELN9__gnu_cxx12_Lock_policyE2EED2Ev
FNDA:1,_ZNSt12__shared_ptrIKN7testing8internal23ParamGeneratorInterfaceIiEELN9__gnu_cxx12_Lock_policyE2EED2Ev
FNDA:6,_ZNSt12__shared_ptrIN7testing10OnceActionIFivEEELN9__gnu_cxx12_Lock_policyE2EED2Ev
FNDA:4,_ZNSt12__shared_ptrIN7testing8internal12ReturnActionIiE4ImplIiE5StateELN9__gnu_cxx12_Lock_policyE2EED2Ev
FNDA:4,_ZNSt12__shared_ptrIN7testing8internal12ReturnActionIiE4ImplIiEELN9__gnu_cxx12_Lock_policyE2EED2Ev
FNDA:67,_ZNSt12__shared_ptrIN7testing8internal15ExpectationBaseELN9__gnu_cxx12_Lock_policyE2EED2Ev
FNDA:3,_ZNSt12__shared_ptrIN7testing8internal26ParameterizedTestSuiteInfoI18AccountBalanceTestE8TestInfoELN9__gnu_cxx12_Lock_policyE2EED2Ev
FNDA:2,_ZNSt12__shared_ptrIN7testing10OnceActionIFivEEELN9__gnu_cxx12_Lock_policyE2EEC2EOS6_
FNDA:2,_ZNSt12__shared_ptrIN7testing8internal12ReturnActionIiE4ImplIiEELN9__gnu_cxx12_Lock_policyE2EEC2EOS8_
FNDA:1,_ZNSt12__shared_ptrIN7testing8internal15ExpectationBaseELN9__gnu_cxx12_Lock_policyE2EEC2EOS5_
FNDA:1,_ZNSt12__shared_ptrIN7testing8internal26ParameterizedTestSuiteInfoI18AccountBalanceTestE8TestInfoELN9__gnu_cxx12_Lock_policyE2EEC2EOS8_
FNDA:142,_ZNKSt12__shared_ptrIKN7testing20CardinalityInterfaceELN9__gnu_cxx12_Lock_policyE2EE3getEv
FNDA:6,_ZNKSt12__shared_ptrIKN7testing8internal23ParamGeneratorInterfaceIiEELN9__gnu_cxx12_Lock_policyE2EE3getEv
FNDA:2,_ZNKSt12__shared_ptrIN7testing10OnceActionIFivEEELN9__gnu_cxx12_Lock_policyE2EE3getEv
FNDA:2,_ZNKSt12__shared_ptrIN7testing8internal12ReturnActionIiE4ImplIiE5StateELN9__gnu_cxx12_Lock_policyE2EE3getEv
FNDA:2,_ZNKSt12__shared_ptrIN7testing8internal12ReturnActionIiE4ImplIiEELN9__gnu_cxx12_Lock_policyE2EE3getEv
FNDA:163,_ZNKSt12__shared_ptrIN7testing8internal15ExpectationBaseELN9__gnu_cxx12_Lock_policyE2EE3getEv
FNDA:17,_ZNKSt12__shared_ptrIN7testing8internal26ParameterizedTestSuiteInfoI18AccountBalanceTestE8TestInfoELN9__gnu_cxx12_Lock_policyE2EE3getEv
FNDA:2,_ZNSt12__shared_ptrIN7testing10OnceActionIFivEEELN9__gnu_cxx12_Lock_policyE2EEC2ISaIvEJS3_EEESt20_Sp_alloc_shared_tagIT_EDpOT0_
FNDA:2,_ZNSt12__shared_ptrIN7testing8internal12ReturnActionIiE4ImplIiEELN9__gnu_cxx12_Lock_policyE2EEC2ISaIvEJS5_EEESt20_Sp_alloc_shared_tagIT_EDpOT0_
FNDA:0,_ZNSt16_Sp_counted_baseILN9__gnu_cxx12_Lock_policyE2EE19_M_release_last_useEv
FNDA:1,_ZNSt12__shared_ptrIKN7testing8internal23ParamGeneratorInterfaceIiEELN9__gnu_cxx12_Lock_policyE2EE31_M_enable_shared_from_this_withIS3_S3_EENSt9enable_ifIXntsrNS7_15__has_esft_baseIT0_vEE5valueEvE4typeEPT_
FNDA:2,_ZNSt12__shared_ptrIN7testing10OnceActionIFivEEELN9__gnu_cxx12_Lock_policyE2EE31_M_enable_shared_from_this_withIS3_S3_EENSt9enable_ifIXntsrNS6_15__has_esft_baseIT0_vEE5valueEvE4typeEPT_
FNDA:2,_ZNSt12__shared_ptrIN7testing8internal12ReturnActionIiE4ImplIiE5StateELN9__gnu_cxx12_Lock_policyE2EE31_M_enable_shared_from_this_withIS6_S6_EENSt9enable_ifIXntsrNS9_15__has_esft_baseIT0_vEE5valueEvE4typeEPT_
FNDA:2,_ZNSt12__shared_ptrIN7testing8internal12ReturnActionIiE4ImplIiEELN9__gnu_cxx12_Lock_policyE2EE31_M_enable_shared_from_this_withIS5_S5_EENSt9enable_ifIXntsrNS8_15__has_esft_baseIT0_vEE5valueEvE4typeEPT_
FNDA:2,_ZNSt12__shared_ptrIN7testing8internal15ExpectationBaseELN9__gnu_cxx12_Lock_policyE2EE31_M_enable_shared_from_this_withINS1_16TypedExpectationIFivEEES9_EENSt9enable_ifIXntsrNS5_15__has_esft_baseIT0_vEE5valueEvE4typeEPT_
FNDA:3,_ZNSt12__shared_ptrIN7testing8internal15ExpectationBaseELN9__gnu_cxx12_Lock_policyE2EE31_M_enable_shared_from_this_withINS1_16TypedExpectationIFvR7AccountS9_iEEESB_EENSt9enable_ifIXntsrNS5_15__has_esft_baseIT0_vEE5valueEvE4typeEPT_
FNDA:4,_ZNSt12__shared_ptrIN7testing8internal15ExpectationBaseELN9__gnu_cxx12_Lock_policyE2EE31_M_enable_shared_from_this_withINS1_16TypedExpectationIFviEEES9_EENSt9enable_ifIXntsrNS5_15__has_esft_baseIT0_vEE5valueEvE4typeEPT_
FNDA:8,_ZNSt12__shared_ptrIN7testing8internal15ExpectationBaseELN9__gnu_cxx12_Lock_policyE2EE31_M_enable_shared_from_this_withINS1_16TypedExpectationIFvvEEES9_EENSt9enable_ifIXntsrNS5_15__has_esft_baseIT0_vEE5valueEvE4typeEPT_
FNDA:1,_ZNSt12__shared_ptrIN7testing8internal26ParameterizedTestSuiteInfoI18AccountBalanceTestE8TestInfoELN9__gnu_cxx12_Lock_policyE2EE31_M_enable_shared_from_this_withIS5_S5_EENSt9enable_ifIXntsrNS8_15__has_esft_baseIT0_vEE5valueEvE4typeEPT_
FNDA:0,_ZNSt16_Sp_counted_baseILN9__gnu_cxx12_Lock_policyE2EE24_M_release_last_use_coldEv
FNDA:118,_ZNSt16_Sp_counted_baseILN9__gnu_cxx12_Lock_policyE2EE10_M_releaseEv
FNDA:2,_ZNSt15_Sp_counted_ptrIPN7testing8internal12ReturnActionIiE4ImplIiE5StateELN9__gnu_cxx12_Lock_policyE2EEC2ES7_
FNDA:2,_ZNSt15_Sp_counted_ptrIPN7testing8internal16TypedExpectationIFivEEELN9__gnu_cxx12_Lock_policyE2EEC2ES5_
FNDA:3,_ZNSt15_Sp_counted_ptrIPN7testing8internal16TypedExpectationIFvR7AccountS4_iEEELN9__gnu_cxx12_Lock_policyE2EEC2ES7_
FNDA:4,_ZNSt15_Sp_counted_ptrIPN7testing8internal16TypedExpectationIFviEEELN9__gnu_cxx12_Lock_policyE2EEC2ES5_
FNDA:8,_ZNSt15_Sp_counted_ptrIPN7testing8internal16TypedExpectationIFvvEEELN9__gnu_cxx12_Lock_policyE2EEC2ES5_
FNDA:1,_ZNSt15_Sp_counted_ptrIPN7testing8internal23ParamGeneratorInterfaceIiEELN9__gnu_cxx12_Lock_policyE2EEC2ES4_
FNDA:1,_ZNSt15_Sp_counted_ptrIPN7testing8internal26ParameterizedTestSuiteInfoI18AccountBalanceTestE8TestInfoELN9__gnu_cxx12_Lock_policyE2EEC2ES6_
FNDA:2,_ZNSt15_Sp_counted_ptrIPN7testing8internal12ReturnActionIiE4ImplIiE5StateELN9__gnu_cxx12_Lock_policyE2EE10_M_disposeEv
FNDA:2,_ZNSt15_Sp_counted_ptrIPN7testing8internal16TypedExpectationIFivEEELN9__gnu_cxx12_Lock_policyE2EE10_M_disposeEv
FNDA:3,_ZNSt15_Sp_counted_ptrIPN7testing8internal16TypedExpectationIFvR7AccountS4_iEEELN9__gnu_cxx12_Lock_policyE2EE10_M_disposeEv
FNDA:4,_ZNSt15_Sp_counted_ptrIPN7testing8internal16TypedExpectationIFviEEELN9__gnu_cxx12_Lock_policyE2EE10_M_disposeEv
FNDA:8,_ZNSt15_Sp_counted_ptrIPN7testing8internal16TypedExpectationIFvvEEELN9__gnu_cxx12_Lock_policyE2EE10_M_disposeEv
FNDA:1,_ZNSt15_Sp_counted_ptrIPN7testing8internal23ParamGeneratorInterfaceIiEELN9__gnu_cxx12_Lock_policyE2EE10_M_disposeEv
FNDA:1,_ZNSt15_Sp_counted_ptrIPN7testing8internal26ParameterizedTestSuiteInfoI18AccountBalanceTestE8TestInfoELN9__gnu_cxx12_Lock_policyE2EE10_M_disposeEv
FNDA:2,_ZNSt15_Sp_counted_ptrIPN7testing8internal12ReturnActionIiE4ImplIiE5StateELN9__gnu_cxx12_Lock_policyE2EE10_M_destroyEv
FNDA:2,_ZNSt15_Sp_counted_ptrIPN7testing8internal16TypedExpectationIFivEEELN9__gnu_cxx12_Lock_policyE2EE10_M_destroyEv
FNDA:3,_ZNSt15_Sp_counted_ptrIPN7testing8internal16TypedExpectationIFvR7AccountS4_iEEELN9__gnu_cxx12_Lock_policyE2EE10_M_destroyEv
FNDA:4,_ZNSt15_Sp_counted_ptrIPN7testing8internal16TypedExpectationIFviEEELN9__gnu_cxx12_Lock_policyE2EE10_M_destroyEv
FNDA:8,_ZNSt15_Sp_counted_ptrIPN7testing8internal16TypedExpectationIFvvEEELN9__gnu_cxx12_Lock_policyE2EE10_M_destroyEv
FNDA:1,_ZNSt15_Sp_counted_ptrIPN7testing8internal23ParamGeneratorInterfaceIiEELN9__gnu_cxx12_Lock_policyE2EE10_M_destroyEv
FNDA:1,_ZNSt15_Sp_counted_ptrIPN7testing8internal26ParameterizedTestSuiteInfoI18AccountBalanceTestE8TestInfoELN9__gnu_cxx12_Lock_policyE2EE10_M_destroyEv
FNDA:0,_ZNSt15_Sp_counted_ptrIPN7testing8internal12ReturnActionIiE4ImplIiE5StateELN9__gnu_cxx12_Lock_policyE2EE14_M_get_deleterERKSt9type_info
FNDA:0,_ZNSt15_Sp_counted_ptrIPN7testing8internal16TypedExpectationIFivEEELN9__gnu_cxx12_Lock_policyE2EE14_M_get_deleterERKSt9type_info
FNDA:0,_ZNSt15_Sp_counted_ptrIPN7testing8internal16TypedExpectationIFvR7AccountS4_iEEELN9__gnu_cxx12_Lock_policyE2EE14_M_get_deleterERKSt9type_info
FNDA:0,_ZNSt15_Sp_counted_ptrIPN7testing8internal16TypedExpectationIFviEEELN9__gnu_cxx12_Lock_policyE2EE14_M_get_deleterERKSt9type_info
FNDA:0,_ZNSt15_Sp_counted_ptrIPN7testing8internal16TypedExpectationIFvvEEELN9__gnu_cxx12_Lock_policyE2EE14_M_get_deleterERKSt9type_info
FNDA:0,_ZNSt15_Sp_counted_ptrIPN7testing8internal23ParamGeneratorInterfaceIiEELN9__gnu_cxx12_Lock_policyE2EE14_M_get_deleterERKSt9type_info
FNDA:0,_ZNSt15_Sp_counted_ptrIPN7testing8internal26ParameterizedTestSuiteInfoI18AccountBalanceTestE8TestInfoELN9__gnu_cxx12_Lock_policyE2EE14_M_get_deleterERKSt9type_info
FNDA:4,_ZNSt14_Sp_ebo_helperILi0ESaIvELb1EEC2ERKS0_
FNDA:8,_ZNSt14_Sp_ebo_helperILi0ESaIvELb1EE6_S_getERS1_
FNDA:0,_ZNSt19_Sp_make_shared_tag5_S_tiEv
FNDA:2,_ZNSt23_Sp_counted_ptr_inplaceIN7testing10OnceActionIFivEEESaIvELN9__gnu_cxx12_Lock_policyE2EE5_ImplC2ES4_
FNDA:2,_ZNSt23_Sp_counted_ptr_inplaceIN7testing8internal12ReturnActionIiE4ImplIiEESaIvELN9__gnu_cxx12_Lock_policyE2EE5_ImplC2ES6_
FNDA:4,_ZNSt23_Sp_counted_ptr_inplaceIN7testing10OnceActionIFivEEESaIvELN9__gnu_cxx12_Lock_policyE2EE5_Impl8_M_allocEv
FNDA:4,_ZNSt23_Sp_counted_ptr_inplaceIN7testing8internal12ReturnActionIiE4ImplIiEESaIvELN9__gnu_cxx12_Lock_policyE2EE5_Impl8_M_allocEv
FNDA:2,_ZNSt23_Sp_counted_ptr_inplaceIN7testing10OnceActionIFivEEESaIvELN9__gnu_cxx12_Lock_policyE2EEC2IJS3_EEES4_DpOT_
FNDA:2,_ZNSt23_Sp_counted_ptr_inplaceIN7testing8internal12ReturnActionIiE4ImplIiEESaIvELN9__gnu_cxx12_Lock_policyE2EEC2IJS5_EEES6_DpOT_
FNDA:0,_ZNSt23_Sp_counted_ptr_inplaceIN7testing10OnceActionIFivEEESaIvELN9__gnu_cxx12_Lock_policyE2EED0Ev
FNDA:2,_ZNSt23_Sp_counted_ptr_inplaceIN7testing10OnceActionIFivEEESaIvELN9__gnu_cxx12_Lock_policyE2EED2Ev
FNDA:0,_ZNSt23_Sp_counted_ptr_inplaceIN7testing8internal12ReturnActionIiE4ImplIiEESaIvELN9__gnu_cxx12_Lock_policyE2EED0Ev
FNDA:2,_ZNSt23_Sp_counted_ptr_inplaceIN7testing8internal12ReturnActionIiE4ImplIiEESaIvELN9__gnu_cxx12_Lock_policyE2EED2Ev
FNDA:2,_ZNSt23_Sp_counted_ptr_inplaceIN7testing10OnceActionIFivEEESaIvELN9__gnu_cxx12_Lock_policyE2EE10_M_disposeEv
FNDA:2,_ZNSt23_Sp_counted_ptr_inplaceIN7testing8internal12ReturnActionIiE4ImplIiEESaIvELN9__gnu_cxx12_Lock_policyE2EE10_M_disposeEv
FNDA:2,_ZNSt23_Sp_counted_ptr_inplaceIN7testing10OnceActionIFivEEESaIvELN9__gnu_cxx12_Lock_policyE2EE10_M_destroyEv
FNDA:2,_ZNSt23_Sp_counted_ptr_inplaceIN7testing8internal12ReturnActionIiE4ImplIiEESaIvELN9__gnu_cxx12_Lock_policyE2EE10_M_destroyEv
FNDA:0,_ZNSt23_Sp_counted_ptr_inplaceIN7testing10OnceActionIFivEEESaIvELN9__gnu_cxx12_Lock_policyE2EE14_M_get_deleterERKSt9type_info
FNDA:0,_ZNSt23_Sp_counted_ptr_inplaceIN7testing8internal12ReturnActionIiE4ImplIiEESaIvELN9__gnu_cxx12_Lock_policyE2EE14_M_get_deleterERKSt9type_info
FNDA:6,_ZNSt23_Sp_counted_ptr_inplaceIN7testing10OnceActionIFivEEESaIvELN9__gnu_cxx12_Lock_policyE2EE6_M_ptrEv
FNDA:6,_ZNSt23_Sp_counted_ptr_inplaceIN7testing8internal12ReturnActionIiE4ImplIiEESaIvELN9__gnu_cxx12_Lock_policyE2EE6_M_ptrEv
FNDA:8,_ZNSt14__shared_countILN9__gnu_cxx12_Lock_policyE2EEC2Ev
FNDA:2,_ZNSt14__shared_countILN9__gnu_cxx12_Lock_policyE2EEC2IPN7testing8internal12ReturnActionIiE4ImplIiE5StateEEET_
FNDA:2,_ZNSt14__shared_countILN9__gnu_cxx12_Lock_policyE2EEC2IPN7testing8internal16TypedExpectationIFivEEEEET_
FNDA:3,_ZNSt14__shared_countILN9__gnu_cxx12_Lock_policyE2EEC2IPN7testing8internal16TypedExpectationIFvR7AccountS8_iEEEEET_
FNDA:4,_ZNSt14__shared_countILN9__gnu_cxx12_Lock_policyE2EEC2IPN7testing8internal16TypedExpectationIFviEEEEET_
FNDA:8,_ZNSt14__shared_countILN9__gnu_cxx12_Lock_policyE2EEC2IPN7testing8internal16TypedExpectationIFvvEEEEET_
FNDA:1,_ZNSt14__shared_countILN9__gnu_cxx12_Lock_policyE2EEC2IPN7testing8internal23ParamGeneratorInterfaceIiEEEET_
FNDA:1,_ZNSt14__shared_countILN9__gnu_cxx12_Lock_policyE2EEC2IPN7testing8internal26ParameterizedTestSuiteInfoI18AccountBalanceTestE8TestInfoEEET_
FNDA:2,_ZNSt14__shared_countILN9__gnu_cxx12_Lock_policyE2EEC2IPN7testing8internal12ReturnActionIiE4ImplIiE5StateEEET_St17integral_constantIbLb0EE
FNDA:2,_ZNSt14__shared_countILN9__gnu_cxx12_Lock_policyE2EEC2IPN7testing8internal16TypedExpectationIFivEEEEET_St17integral_constantIbLb0EE
FNDA:3,_ZNSt14__shared_countILN9__gnu_cxx12_Lock_policyE2EEC2IPN7testing8internal16TypedExpectationIFvR7AccountS8_iEEEEET_St17integral_constantIbLb0EE
FNDA:4,_ZNSt14__shared_countILN9__gnu_cxx12_Lock_policyE2EEC2IPN7testing8internal16TypedExpectationIFviEEEEET_St17integral_constantIbLb0EE
FNDA:8,_ZNSt14__shared_countILN9__gnu_cxx12_Lock_policyE2EEC2IPN7testing8internal16TypedExpectationIFvvEEEEET_St17integral_constantIbLb0EE
FNDA:1,_ZNSt14__shared_countILN9__gnu_cxx12_Lock_policyE2EEC2IPN7testing8internal23ParamGeneratorInterfaceIiEEEET_St17integral_constantIbLb0EE
FNDA:1,_ZNSt14__shared_countILN9__gnu_cxx12_Lock_policyE2EEC2IPN7testing8internal26ParameterizedTestSuiteInfoI18AccountBalanceTestE8TestInfoEEET_St17integral_constantIbLb0EE
FNDA:2,_ZNSt14__shared_countILN9__gnu_cxx12_Lock_policyE2EEC2IN7testing10OnceActionIFivEEESaIvEJS7_EEERPT_St20_Sp_alloc_shared_tagIT0_EDpOT1_
FNDA:2,_ZNSt14__shared_countILN9__gnu_cxx12_Lock_policyE2EEC2IN7testing8internal12ReturnActionIiE4ImplIiEESaIvEJS9_EEERPT_St20_Sp_alloc_shared_tagIT0_EDpOT1_
FNF:134
FNH:117
DA:129,47
DA:130,47
DA:133,47
DA:134,47
DA:143,0
DA:144,0
DA:151,71
DA:152,71
DA:172,0
DA:175,0
DA:187,0
DA:188,0
DA:191,0
DA:193,0
DA:198,0
DA:199,0
DA:317,118
DA:321,118
DA:324,118
DA:328,118
DA:331,118
DA:332,118
DA:333,118
DA:334,118
DA:337,118
DA:343,47
DA:346,47
DA:347,47
DA:348,47
DA:350,142
DA:351,0
DA:353,0
DA:354,0
DA:423,21
DA:424,21
DA:427,21
DA:428,21
DA:431,21
DA:432,21
DA:435,0
DA:436,0
DA:470,4
DA:474,8
DA:564,0
DA:567,0
DA:587,4
DA:589,8
DA:599,4
DA:600,4
DA:604,4
DA:606,4
DA:608,4
DA:611,4
DA:613,4
DA:614,4
DA:618,4
DA:620,4
DA:621,4
DA:622,4
DA:623,4
DA:631,0
DA:633,0
DA:638,0
DA:639,0
DA:641,0
DA:646,0
DA:647,0
DA:650,12
DA:908,8
DA:909,8
DA:913,21
DA:917,21
DA:919,0
DA:921,0
DA:922,0
DA:924,21
DA:927,21
DA:928,21
DA:929,21
DA:964,4
DA:968,4
DA:969,4
DA:970,4
DA:971,4
DA:973,4
DA:974,4
DA:975,4
DA:976,8
DA:1068,107
DA:1070,107
DA:1071,101
DA:1072,107
DA:1074,52
DA:1075,52
DA:1077,52
DA:1078,52
DA:1079,52
DA:1082,19
DA:1084,19
DA:1085,19
DA:1087,19
DA:1088,19
DA:1089,19
DA:1090,17
DA:1091,19
DA:1093,19
DA:1097,6
DA:1099,6
DA:1100,6
DA:1101,6
DA:1102,6
DA:1347,4
DA:1349,4
DA:1350,4
DA:1354,181
DA:1357,181
DA:1362,185
DA:1363,185
DA:1468,21
DA:1469,21
DA:1473,21
DA:1474,21
DA:1522,52
DA:1523,3
DA:1524,105
DA:1531,6
DA:1532,6
DA:1534,6
DA:1535,6
DA:1536,6
DA:1665,334
DA:1666,334
DA:1711,4
DA:1712,4
DA:1713,4
DA:1765,25
DA:1766,25
LF:137
LH:110
end_of_record
TN:
SF:/usr/include/c++/13/bits/std_function.h
FN:134,143,_ZNSt14_Function_base13_Base_managerIN7testing10OnceActionIFivEE18StdFunctionAdaptorINS1_8internal12ReturnActionIiE4ImplIiEEEEE14_M_get_pointerERKSt9_Any_data
FN:134,143,_ZNSt14_Function_base13_Base_managerIN7testing8internal16TypedExpectationIFivEE13ActionAdaptorEE14_M_get_pointerERKSt9_Any_data
FN:158,162,_ZNSt14_Function_base13_Base_managerIN7testing10OnceActionIFivEE18StdFunctionAdaptorINS1_8internal12ReturnActionIiE4ImplIiEEEEE9_M_createIRKSB_EEvRSt9_Any_dataOT_St17integral_constantIbLb0EE
FN:158,162,_ZNSt14_Function_base13_Base_managerIN7testing10OnceActionIFivEE18StdFunctionAdaptorINS1_8internal12ReturnActionIiE4ImplIiEEEEE9_M_createISB_EEvRSt9_Any_dataOT_St17integral_constantIbLb0EE
FN:158,162,_ZNSt14_Function_base13_Base_managerIN7testing8internal16TypedExpectationIFivEE13ActionAdaptorEE9_M_createIRKS6_EEvRSt9_Any_dataOT_St17integral_constantIbLb0EE
FN:158,162,_ZNSt14_Function_base13_Base_managerIN7testing8internal16TypedExpectationIFivEE13ActionAdaptorEE9_M_createIS6_EEvRSt9_Any_dataOT_St17integral_constantIbLb0EE
FN:173,176,_ZNSt14_Function_base13_Base_managerIN7testing10OnceActionIFivEE18StdFunctionAdaptorINS1_8internal12ReturnActionIiE4ImplIiEEEEE10_M_destroyERSt9_Any_dataSt17integral_constantIbLb0EE
FN:173,176,_ZNSt14_Function_base13_Base_managerIN7testing8internal16TypedExpectationIFivEE13ActionAdaptorEE10_M_destroyERSt9_Any_dataSt17integral_constantIbLb0EE
FN:180,207,_ZNSt14_Function_base13_Base_managerIN7testing10OnceActionIFivEE18StdFunctionAdaptorINS1_8internal12ReturnActionIiE4ImplIiEEEEE10_M_managerERSt9_Any_dataRKSD_St18_Manager_operation
FN:180,207,_ZNSt14_Function_base13_Base_managerIN7testing8internal16TypedExpectationIFivEE13ActionAdaptorEE10_M_managerERSt9_Any_dataRKS8_St18_Manager_operation
FN:211,216,_ZNSt14_Function_base13_Base_managerIN7testing10OnceActionIFivEE18StdFunctionAdaptorINS1_8internal12ReturnActionIiE4ImplIiEEEEE15_M_init_functorIRKSB_EEvRSt9_Any_dataOT_
FN:211,216,_ZNSt14_Function_base13_Base_managerIN7testing10OnceActionIFivEE18StdFunctionAdaptorINS1_8internal12ReturnActionIiE4ImplIiEEEEE15_M_init_functorISB_EEvRSt9_Any_dataOT_
FN:211,216,_ZNSt14_Function_base13_Base_managerIN7testing8internal16TypedExpectationIFivEE13ActionAdaptorEE15_M_init_functorIRKS6_EEvRSt9_Any_dataOT_
FN:211,216,_ZNSt14_Function_base13_Base_managerIN7testing8internal16TypedExpectationIFivEE13ActionAdaptorEE15_M_init_functorIS6_EEvRSt9_Any_dataOT_
FN:235,236,_ZNSt14_Function_base13_Base_managerIN7testing10OnceActionIFivEE18StdFunctionAdaptorINS1_8internal12ReturnActionIiE4ImplIiEEEEE21_M_not_empty_functionISB_EEbRKT_
FN:235,236,_ZNSt14_Function_base13_Base_managerIN7testing8internal16TypedExpectationIFivEE13ActionAdaptorEE21_M_not_empty_functionIS6_EEbRKT_
FN:239,239,_ZNSt14_Function_baseC2Ev
FN:241,245,_ZNSt14_Function_baseD2Ev
FN:247,247,_ZNKSt14_Function_base8_M_emptyEv
FN:267,285,_ZNSt17_Function_handlerIFivEN7testing10OnceActionIS0_E18StdFunctionAdaptorINS1_8internal12ReturnActionIiE4ImplIiEEEEE10_M_managerERSt9_Any_dataRKSC_St18_Manager_operation
FN:267,285,_ZNSt17_Function_handlerIFivEN7testing8internal16TypedExpectationIS0_E13ActionAdaptorEE10_M_managerERSt9_Any_dataRKS7_St18_Manager_operation
FN:288,292,_ZNSt17_Function_handlerIFivEN7testing10OnceActionIS0_E18StdFunctionAdaptorINS1_8internal12ReturnActionIiE4ImplIiEEEEE9_M_invokeERKSt9_Any_data
FN:288,292,_ZNSt17_Function_handlerIFivEN7testing8internal16TypedExpectationIS0_E13ActionAdaptorEE9_M_invokeERKSt9_Any_data
FN:368,369,_ZNSt8functionIFivEEC2Ev
FN:368,369,_ZNSt8functionIFvR7AccountS1_iEEC2Ev
FN:368,369,_ZNSt8functionIFviEEC2Ev
FN:368,369,_ZNSt8functionIFvvEEC2Ev
FN:386,395,_ZNSt8functionIFivEEC2ERKS1_
FN:386,395,_ZNSt8functionIFvR7AccountS1_iEEC2ERKS3_
FN:386,395,_ZNSt8functionIFviEEC2ERKS1_
FN:386,395,_ZNSt8functionIFvvEEC2ERKS1_
FN:404,414,_ZNSt8functionIFivEEC2EOS1_
FN:435,454,_ZNSt8functionIFivEEC2IN7testing10OnceActionIS0_E18StdFunctionAdaptorINS3_8internal12ReturnActionIiE4ImplIiEEEEvEEOT_
FN:435,454,_ZNSt8functionIFivEEC2IN7testing8internal16TypedExpectationIS0_E13ActionAdaptorEvEEOT_
FN:531,536,_ZNSt8functionIFivEEaSIN7testing8internal16TypedExpectationIS0_E13ActionAdaptorEEENSt9enable_ifIXsrNS1_9_CallableIT_NS8_IXntsrSt7is_sameINSt9remove_cvINSt16remove_referenceISA_E4typeEE4typeES1_E5valueESt5decayISA_EE4type4typeESt15__invoke_resultIRSN_JEEEE5valueERS1_E4typeEOSA_
FN:556,561,_ZNSt8functionIFivEE4swapERS1_
FN:573,574,_ZNKSt8functionIFivEEcvbEv
FN:573,574,_ZNKSt8functionIFvR7AccountS1_iEEcvbEv
FN:573,574,_ZNKSt8functionIFviEEcvbEv
FN:573,574,_ZNKSt8functionIFvvEEcvbEv
FN:587,592,_ZNKSt8functionIFivEEclEv
FN:587,592,_ZNKSt8functionIFvR7AccountS1_iEEclES1_S1_i
FN:587,592,_ZNKSt8functionIFviEEclEi
FN:587,592,_ZNKSt8functionIFvvEEclEv
FN:737,738,_ZSteqIiJEEbRKSt8functionIFT_DpT0_EEDn
FN:737,738,_ZSteqIvJEEbRKSt8functionIFT_DpT0_EEDn
FN:737,738,_ZSteqIvJR7AccountS1_iEEbRKSt8functionIFT_DpT0_EEDn
FN:737,738,_ZSteqIvJiEEbRKSt8functionIFT_DpT0_EEDn
FN:85,85,_ZNSt9_Any_data9_M_accessEv
FN:86,86,_ZNKSt9_Any_data9_M_accessEv
FN:90,91,_ZNSt9_Any_data9_M_accessIPKSt9type_infoEERT_v
FN:90,91,_ZNSt9_Any_data9_M_accessIPN7testing10OnceActionIFivEE18StdFunctionAdaptorINS1_8internal12ReturnActionIiE4ImplIiEEEEEERT_v
FN:90,91,_ZNSt9_Any_data9_M_accessIPN7testing8internal16TypedExpectationIFivEE13ActionAdaptorEEERT_v
FN:95,96,_ZNKSt9_Any_data9_M_accessIPN7testing10OnceActionIFivEE18StdFunctionAdaptorINS1_8internal12ReturnActionIiE4ImplIiEEEEEERKT_v
FN:95,96,_ZNKSt9_Any_data9_M_accessIPN7testing8internal16TypedExpectationIFivEE13ActionAdaptorEEERKT_v
FNDA:2,_ZNSt14_Function_base13_Base_managerIN7testing10OnceActionIFivEE18StdFunctionAdaptorINS1_8internal12ReturnActionIiE4ImplIiEEEEE14_M_get_pointerERKSt9_Any_data
FNDA:4,_ZNSt14_Function_base13_Base_managerIN7testing8internal16TypedExpectationIFivEE13ActionAdaptorEE14_M_get_pointerERKSt9_Any_data
FNDA:0,_ZNSt14_Function_base13_Base_managerIN7testing10OnceActionIFivEE18StdFunctionAdaptorINS1_8internal12ReturnActionIiE4ImplIiEEEEE9_M_createIRKSB_EEvRSt9_Any_dataOT_St17integral_constantIbLb0EE
FNDA:2,_ZNSt14_Function_base13_Base_managerIN7testing10OnceActionIFivEE18StdFunctionAdaptorINS1_8internal12ReturnActionIiE4ImplIiEEEEE9_M_createISB_EEvRSt9_Any_dataOT_St17integral_constantIbLb0EE
FNDA:2,_ZNSt14_Function_base13_Base_managerIN7testing8internal16TypedExpectationIFivEE13ActionAdaptorEE9_M_createIRKS6_EEvRSt9_Any_dataOT_St17integral_constantIbLb0EE
FNDA:2,_ZNSt14_Function_base13_Base_managerIN7testing8internal16TypedExpectationIFivEE13ActionAdaptorEE9_M_createIS6_EEvRSt9_Any_dataOT_St17integral_constantIbLb0EE
FNDA:2,_ZNSt14_Function_base13_Base_managerIN7testing10OnceActionIFivEE18StdFunctionAdaptorINS1_8internal12ReturnActionIiE4ImplIiEEEEE10_M_destroyERSt9_Any_dataSt17integral_constantIbLb0EE
FNDA:4,_ZNSt14_Function_base13_Base_managerIN7testing8internal16TypedExpectationIFivEE13ActionAdaptorEE10_M_destroyERSt9_Any_dataSt17integral_constantIbLb0EE
FNDA:2,_ZNSt14_Function_base13_Base_managerIN7testing10OnceActionIFivEE18StdFunctionAdaptorINS1_8internal12ReturnActionIiE4ImplIiEEEEE10_M_managerERSt9_Any_dataRKSD_St18_Manager_operation
FNDA:6,_ZNSt14_Function_base13_Base_managerIN7testing8internal16TypedExpectationIFivEE13ActionAdaptorEE10_M_managerERSt9_Any_dataRKS8_St18_Manager_operation
FNDA:0,_ZNSt14_Function_base13_Base_managerIN7testing10OnceActionIFivEE18StdFunctionAdaptorINS1_8internal12ReturnActionIiE4ImplIiEEEEE15_M_init_functorIRKSB_EEvRSt9_Any_dataOT_
FNDA:2,_ZNSt14_Function_base13_Base_managerIN7testing10OnceActionIFivEE18StdFunctionAdaptorINS1_8internal12ReturnActionIiE4ImplIiEEEEE15_M_init_functorISB_EEvRSt9_Any_dataOT_
FNDA:2,_ZNSt14_Function_base13_Base_managerIN7testing8internal16TypedExpectationIFivEE13ActionAdaptorEE15_M_init_functorIRKS6_EEvRSt9_Any_dataOT_
FNDA:2,_ZNSt14_Function_base13_Base_managerIN7testing8internal16TypedExpectationIFivEE13ActionAdaptorEE15_M_init_functorIS6_EEvRSt9_Any_dataOT_
FNDA:2,_ZNSt14_Function_base13_Base_managerIN7testing10OnceActionIFivEE18StdFunctionAdaptorINS1_8internal12ReturnActionIiE4ImplIiEEEEE21_M_not_empty_functionISB_EEbRKT_
FNDA:2,_ZNSt14_Function_base13_Base_managerIN7testing8internal16TypedExpectationIFivEE13ActionAdaptorEE21_M_not_empty_functionIS6_EEbRKT_
FNDA:29,_ZNSt14_Function_baseC2Ev
FNDA:29,_ZNSt14_Function_baseD2Ev
FNDA:28,_ZNKSt14_Function_base8_M_emptyEv
FNDA:2,_ZNSt17_Function_handlerIFivEN7testing10OnceActionIS0_E18StdFunctionAdaptorINS1_8internal12ReturnActionIiE4ImplIiEEEEE10_M_managerERSt9_Any_dataRKSC_St18_Manager_operation
FNDA:6,_ZNSt17_Function_handlerIFivEN7testing8internal16TypedExpectationIS0_E13ActionAdaptorEE10_M_managerERSt9_Any_dataRKS7_St18_Manager_operation
FNDA:2,_ZNSt17_Function_handlerIFivEN7testing10OnceActionIS0_E18StdFunctionAdaptorINS1_8internal12ReturnActionIiE4ImplIiEEEEE9_M_invokeERKSt9_Any_data
FNDA:2,_ZNSt17_Function_handlerIFivEN7testing8internal16TypedExpectationIS0_E13ActionAdaptorEE9_M_invokeERKSt9_Any_data
FNDA:4,_ZNSt8functionIFivEEC2Ev
FNDA:3,_ZNSt8functionIFvR7AccountS1_iEEC2Ev
FNDA:4,_ZNSt8functionIFviEEC2Ev
FNDA:8,_ZNSt8functionIFvvEEC2Ev
FNDA:2,_ZNSt8functionIFivEEC2ERKS1_
FNDA:0,_ZNSt8functionIFvR7AccountS1_iEEC2ERKS3_
FNDA:0,_ZNSt8functionIFviEEC2ERKS1_
FNDA:0,_ZNSt8functionIFvvEEC2ERKS1_
FNDA:4,_ZNSt8functionIFivEEC2EOS1_
FNDA:2,_ZNSt8functionIFivEEC2IN7testing10OnceActionIS0_E18StdFunctionAdaptorINS3_8internal12ReturnActionIiE4ImplIiEEEEvEEOT_
FNDA:2,_ZNSt8functionIFivEEC2IN7testing8internal16TypedExpectationIS0_E13ActionAdaptorEvEEOT_
FNDA:2,_ZNSt8functionIFivEEaSIN7testing8internal16TypedExpectationIS0_E13ActionAdaptorEEENSt9enable_ifIXsrNS1_9_CallableIT_NS8_IXntsrSt7is_sameINSt9remove_cvINSt16remove_referenceISA_E4typeEE4typeES1_E5valueESt5decayISA_EE4type4typeESt15__invoke_resultIRSN_JEEEE5valueERS1_E4typeEOSA_
FNDA:2,_ZNSt8functionIFivEE4swapERS1_
FNDA:10,_ZNKSt8functionIFivEEcvbEv
FNDA:2,_ZNKSt8functionIFvR7AccountS1_iEEcvbEv
FNDA:4,_ZNKSt8functionIFviEEcvbEv
FNDA:8,_ZNKSt8functionIFvvEEcvbEv
FNDA:4,_ZNKSt8functionIFivEEclEv
FNDA:0,_ZNKSt8functionIFvR7AccountS1_iEEclES1_S1_i
FNDA:0,_ZNKSt8functionIFviEEclEi
FNDA:0,_ZNKSt8functionIFvvEEclEv
FNDA:4,_ZSteqIiJEEbRKSt8functionIFT_DpT0_EEDn
FNDA:8,_ZSteqIvJEEbRKSt8functionIFT_DpT0_EEDn
FNDA:2,_ZSteqIvJR7AccountS1_iEEbRKSt8functionIFT_DpT0_EEDn
FNDA:4,_ZSteqIvJiEEbRKSt8functionIFT_DpT0_EEDn
FNDA:12,_ZNSt9_Any_data9_M_accessEv
FNDA:6,_ZNKSt9_Any_data9_M_accessEv
FNDA:0,_ZNSt9_Any_data9_M_accessIPKSt9type_infoEERT_v
FNDA:4,_ZNSt9_Any_data9_M_accessIPN7testing10OnceActionIFivEE18StdFunctionAdaptorINS1_8internal12ReturnActionIiE4ImplIiEEEEEERT_v
FNDA:8,_ZNSt9_Any_data9_M_accessIPN7testing8internal16TypedExpectationIFivEE13ActionAdaptorEEERT_v
FNDA:2,_ZNKSt9_Any_data9_M_accessIPN7testing10OnceActionIFivEE18StdFunctionAdaptorINS1_8internal12ReturnActionIiE4ImplIiEEEEEERKT_v
FNDA:4,_ZNKSt9_Any_data9_M_accessIPN7testing8internal16TypedExpectationIFivEE13ActionAdaptorEEERKT_v
FNF:55
FNH:46
DA:85,12
DA:86,6
DA:90,12
DA:91,12
DA:95,6
DA:96,6
DA:134,6
DA:142,6
DA:158,6
DA:160,6
DA:161,6
DA:162,6
DA:173,6
DA:175,6
DA:176,6
DA:180,8
DA:183,8
DA:185,0
DA:187,0
DA:191,0
DA:193,0
DA:194,0
DA:195,0
DA:197,2
DA:198,2
DA:199,2
DA:200,2
DA:202,6
DA:203,6
DA:204,6
DA:206,8
DA:211,6
DA:215,6
DA:216,6
DA:235,4
DA:236,4
DA:239,29
DA:241,29
DA:243,29
DA:244,6
DA:245,29
DA:247,28
DA:267,8
DA:270,8
DA:273,0
DA:274,0
DA:275,0
DA:277,0
DA:278,0
DA:279,0
DA:281,8
DA:282,8
DA:284,8
DA:288,4
DA:290,4
DA:291,4
DA:368,19
DA:369,19
DA:386,2
DA:387,2
DA:389,2
DA:391,2
DA:392,2
DA:393,2
DA:395,2
DA:404,4
DA:405,4
DA:407,4
DA:409,4
DA:410,4
DA:411,4
DA:412,4
DA:414,4
DA:435,4
DA:437,4
DA:447,4
DA:449,4
DA:451,4
DA:452,4
DA:454,4
DA:531,2
DA:534,2
DA:535,2
DA:556,2
DA:558,2
DA:559,2
DA:560,2
DA:561,2
DA:573,24
DA:574,24
DA:587,4
DA:589,4
DA:590,0
DA:591,4
DA:737,18
DA:738,18
LF:96
LH:83
end_of_record
TN:
SF:/usr/include/c++/13/bits/stl_algobase.h
FN:233,241,_ZSt3minImERKT_S2_S2_
FN:257,265,_ZSt3maxImERKT_S2_S2_
FN:316,318,_ZSt12__niter_baseIPKiET_S2_
FN:316,318,_ZSt12__niter_baseIPN7testing8internal26ParameterizedTestSuiteInfoI18AccountBalanceTestE17InstantiationInfoEET_S7_
FN:316,318,_ZSt12__niter_baseIPPKvET_S3_
FN:316,318,_ZSt12__niter_baseIPPN7testing8internal30ParameterizedTestSuiteInfoBaseEET_S5_
FN:316,318,_ZSt12__niter_baseIPSt10shared_ptrIN7testing8internal15ExpectationBaseEEET_S6_
FN:316,318,_ZSt12__niter_baseIPSt10shared_ptrIN7testing8internal26ParameterizedTestSuiteInfoI18AccountBalanceTestE8TestInfoEEET_S9_
FN:316,318,_ZSt12__niter_baseIPiET_S1_
FN:338,339,_ZSt12__niter_wrapIPPKvET_RKS3_S3_
FN:338,339,_ZSt12__niter_wrapIPPN7testing8internal30ParameterizedTestSuiteInfoBaseEET_RKS5_S5_
FN:338,339,_ZSt12__niter_wrapIPiET_RKS1_S1_
FN:397,398,_ZNSt11__copy_moveILb0ELb0ESt26random_access_iterator_tagE12__assign_oneIiKiEEvPT_PT0_
FN:422,423,_ZNSt11__copy_moveILb1ELb0ESt26random_access_iterator_tagE12__assign_oneIPKvS4_EEvPT_PT0_
FN:422,423,_ZNSt11__copy_moveILb1ELb0ESt26random_access_iterator_tagE12__assign_oneIPN7testing8internal30ParameterizedTestSuiteInfoBaseES6_EEvPT_PT0_
FN:433,442,_ZNSt11__copy_moveILb0ELb1ESt26random_access_iterator_tagE8__copy_mIKiiEEPT0_PT_S7_S5_
FN:433,442,_ZNSt11__copy_moveILb1ELb1ESt26random_access_iterator_tagE8__copy_mIPKvS4_EEPT0_PT_S8_S6_
FN:433,442,_ZNSt11__copy_moveILb1ELb1ESt26random_access_iterator_tagE8__copy_mIPN7testing8internal30ParameterizedTestSuiteInfoBaseES6_EEPT0_PT_SA_S8_
FN:497,507,_ZSt14__copy_move_a2ILb0EPKiPiET1_T0_S4_S3_
FN:497,507,_ZSt14__copy_move_a2ILb1EPPKvS2_ET1_T0_S4_S3_
FN:497,507,_ZSt14__copy_move_a2ILb1EPPN7testing8internal30ParameterizedTestSuiteInfoBaseES4_ET1_T0_S6_S5_
FN:532,533,_ZSt14__copy_move_a1ILb0EPKiPiET1_T0_S4_S3_
FN:532,533,_ZSt14__copy_move_a1ILb1EPPKvS2_ET1_T0_S4_S3_
FN:532,533,_ZSt14__copy_move_a1ILb1EPPN7testing8internal30ParameterizedTestSuiteInfoBaseES4_ET1_T0_S6_S5_
FN:538,544,_ZSt13__copy_move_aILb0EN9__gnu_cxx17__normal_iteratorIPKiSt6vectorIiSaIiEEEEPiET1_T0_SA_S9_
FN:538,544,_ZSt13__copy_move_aILb0EPKiPiET1_T0_S4_S3_
FN:538,544,_ZSt13__copy_move_aILb1EPPKvS2_ET1_T0_S4_S3_
FN:538,544,_ZSt13__copy_move_aILb1EPPN7testing8internal30ParameterizedTestSuiteInfoBaseES4_ET1_T0_S6_S5_
FN:624,634,_ZSt4copyIN9__gnu_cxx17__normal_iteratorIPKiSt6vectorIiSaIiEEEEPiET0_T_SA_S9_
FN:624,634,_ZSt4copyIPKiPiET0_T_S4_S3_
FN:624,634,_ZSt4copyISt13move_iteratorIPPKvES3_ET0_T_S6_S5_
FN:624,634,_ZSt4copyISt13move_iteratorIPPN7testing8internal30ParameterizedTestSuiteInfoBaseEES5_ET0_T_S8_S7_
FNDA:171,_ZSt3minImERKT_S2_S2_
FNDA:65,_ZSt3maxImERKT_S2_S2_
FNDA:2,_ZSt12__niter_baseIPKiET_S2_
FNDA:6,_ZSt12__niter_baseIPN7testing8internal26ParameterizedTestSuiteInfoI18AccountBalanceTestE17InstantiationInfoEET_S7_
FNDA:12,_ZSt12__niter_baseIPPKvET_S3_
FNDA:6,_ZSt12__niter_baseIPPN7testing8internal30ParameterizedTestSuiteInfoBaseEET_S5_
FNDA:102,_ZSt12__niter_baseIPSt10shared_ptrIN7testing8internal15ExpectationBaseEEET_S6_
FNDA:6,_ZSt12__niter_baseIPSt10shared_ptrIN7testing8internal26ParameterizedTestSuiteInfoI18AccountBalanceTestE8TestInfoEEET_S9_
FNDA:86,_ZSt12__niter_baseIPiET_S1_
FNDA:0,_ZSt12__niter_wrapIPPKvET_RKS3_S3_
FNDA:0,_ZSt12__niter_wrapIPPN7testing8internal30ParameterizedTestSuiteInfoBaseEET_RKS5_S5_
FNDA:2,_ZSt12__niter_wrapIPiET_RKS1_S1_
FNDA:0,_ZNSt11__copy_moveILb0ELb0ESt26random_access_iterator_tagE12__assign_oneIiKiEEvPT_PT0_
FNDA:0,_ZNSt11__copy_moveILb1ELb0ESt26random_access_iterator_tagE12__assign_oneIPKvS4_EEvPT_PT0_
FNDA:0,_ZNSt11__copy_moveILb1ELb0ESt26random_access_iterator_tagE12__assign_oneIPN7testing8internal30ParameterizedTestSuiteInfoBaseES6_EEvPT_PT0_
FNDA:2,_ZNSt11__copy_moveILb0ELb1ESt26random_access_iterator_tagE8__copy_mIKiiEEPT0_PT_S7_S5_
FNDA:0,_ZNSt11__copy_moveILb1ELb1ESt26random_access_iterator_tagE8__copy_mIPKvS4_EEPT0_PT_S8_S6_
FNDA:0,_ZNSt11__copy_moveILb1ELb1ESt26random_access_iterator_tagE8__copy_mIPN7testing8internal30ParameterizedTestSuiteInfoBaseES6_EEPT0_PT_SA_S8_
FNDA:2,_ZSt14__copy_move_a2ILb0EPKiPiET1_T0_S4_S3_
FNDA:0,_ZSt14__copy_move_a2ILb1EPPKvS2_ET1_T0_S4_S3_
FNDA:0,_ZSt14__copy_move_a2ILb1EPPN7testing8internal30ParameterizedTestSuiteInfoBaseES4_ET1_T0_S6_S5_
FNDA:2,_ZSt14__copy_move_a1ILb0EPKiPiET1_T0_S4_S3_
FNDA:0,_ZSt14__copy_move_a1ILb1EPPKvS2_ET1_T0_S4_S3_
FNDA:0,_ZSt14__copy_move_a1ILb1EPPN7testing8internal30ParameterizedTestSuiteInfoBaseES4_ET1_T0_S6_S5_
FNDA:1,_ZSt13__copy_move_aILb0EN9__gnu_cxx17__normal_iteratorIPKiSt6vectorIiSaIiEEEEPiET1_T0_SA_S9_
FNDA:1,_ZSt13__copy_move_aILb0EPKiPiET1_T0_S4_S3_
FNDA:0,_ZSt13__copy_move_aILb1EPPKvS2_ET1_T0_S4_S3_
FNDA:0,_ZSt13__copy_move_aILb1EPPN7testing8internal30ParameterizedTestSuiteInfoBaseES4_ET1_T0_S6_S5_
FNDA:1,_ZSt4copyIN9__gnu_cxx17__normal_iteratorIPKiSt6vectorIiSaIiEEEEPiET0_T_SA_S9_
FNDA:1,_ZSt4copyIPKiPiET0_T_S4_S3_
FNDA:0,_ZSt4copyISt13move_iteratorIPPKvES3_ET0_T_S6_S5_
FNDA:0,_ZSt4copyISt13move_iteratorIPPN7testing8internal30ParameterizedTestSuiteInfoBaseEES5_ET0_T_S8_S7_
FNF:32
FNH:17
DA:233,171
DA:238,171
DA:239,0
DA:240,171
DA:257,65
DA:262,65
DA:263,41
DA:264,24
DA:316,220
DA:318,220
DA:338,2
DA:339,2
DA:397,0
DA:398,0
DA:422,0
DA:423,0
DA:433,2
DA:435,2
DA:436,2
DA:437,2
DA:438,0
DA:440,0
DA:441,2
DA:497,2
DA:506,2
DA:532,2
DA:533,2
DA:538,2
DA:540,2
DA:543,2
DA:624,2
DA:633,2
LF:32
LH:25
end_of_record
TN:
SF:/usr/include/c++/13/bits/stl_construct.h
FN:109,120,_ZSt10_ConstructIN7testing10OnceActionIFivEEEJS3_EEvPT_DpOT0_
FN:109,120,_ZSt10_ConstructIN7testing8internal12ReturnActionIiE4ImplIiEEJS5_EEvPT_DpOT0_
FN:109,120,_ZSt10_ConstructIN7testing8internal26ParameterizedTestSuiteInfoI18AccountBalanceTestE17InstantiationInfoEJS5_EEvPT_DpOT0_
FN:109,120,_ZSt10_ConstructISt10shared_ptrIN7testing8internal15ExpectationBaseEEJS4_EEvPT_DpOT0_
FN:109,120,_ZSt10_ConstructISt10shared_ptrIN7testing8internal26ParameterizedTestSuiteInfoI18AccountBalanceTestE8TestInfoEEJS7_EEvPT_DpOT0_
FN:146,153,_ZSt8_DestroyIN7testing10OnceActionIFivEEEEvPT_
FN:146,153,_ZSt8_DestroyIN7testing8internal12ReturnActionIiE4ImplIiEEEvPT_
FN:146,153,_ZSt8_DestroyIN7testing8internal26ParameterizedTestSuiteInfoI18AccountBalanceTestE17InstantiationInfoEEvPT_
FN:146,153,_ZSt8_DestroyISt10shared_ptrIN7testing8internal15ExpectationBaseEEEvPT_
FN:146,153,_ZSt8_DestroyISt10shared_ptrIN7testing8internal26ParameterizedTestSuiteInfoI18AccountBalanceTestE8TestInfoEEEvPT_
FN:160,164,_ZNSt12_Destroy_auxILb0EE9__destroyIPN7testing8internal26ParameterizedTestSuiteInfoI18AccountBalanceTestE17InstantiationInfoEEEvT_S9_
FN:160,164,_ZNSt12_Destroy_auxILb0EE9__destroyIPSt10shared_ptrIN7testing8internal15ExpectationBaseEEEEvT_S8_
FN:160,164,_ZNSt12_Destroy_auxILb0EE9__destroyIPSt10shared_ptrIN7testing8internal26ParameterizedTestSuiteInfoI18AccountBalanceTestE8TestInfoEEEEvT_SB_
FN:172,172,_ZNSt12_Destroy_auxILb1EE9__destroyIPPKvEEvT_S5_
FN:172,172,_ZNSt12_Destroy_auxILb1EE9__destroyIPPN7testing8internal30ParameterizedTestSuiteInfoBaseEEEvT_S7_
FN:172,172,_ZNSt12_Destroy_auxILb1EE9__destroyIPiEEvT_S3_
FN:182,197,_ZSt8_DestroyIPN7testing8internal26ParameterizedTestSuiteInfoI18AccountBalanceTestE17InstantiationInfoEEvT_S7_
FN:182,197,_ZSt8_DestroyIPPKvEvT_S3_
FN:182,197,_ZSt8_DestroyIPPN7testing8internal30ParameterizedTestSuiteInfoBaseEEvT_S5_
FN:182,197,_ZSt8_DestroyIPSt10shared_ptrIN7testing8internal15ExpectationBaseEEEvT_S6_
FN:182,197,_ZSt8_DestroyIPSt10shared_ptrIN7testing8internal26ParameterizedTestSuiteInfoI18AccountBalanceTestE8TestInfoEEEvT_S9_
FN:182,197,_ZSt8_DestroyIPiEvT_S1_
FNDA:2,_ZSt10_ConstructIN7testing10OnceActionIFivEEEJS3_EEvPT_DpOT0_
FNDA:2,_ZSt10_ConstructIN7testing8internal12ReturnActionIiE4ImplIiEEJS5_EEvPT_DpOT0_
FNDA:0,_ZSt10_ConstructIN7testing8internal26ParameterizedTestSuiteInfoI18AccountBalanceTestE17InstantiationInfoEJS5_EEvPT_DpOT0_
FNDA:0,_ZSt10_ConstructISt10shared_ptrIN7testing8internal15ExpectationBaseEEJS4_EEvPT_DpOT0_
FNDA:0,_ZSt10_ConstructISt10shared_ptrIN7testing8internal26ParameterizedTestSuiteInfoI18AccountBalanceTestE8TestInfoEEJS7_EEvPT_DpOT0_
FNDA:2,_ZSt8_DestroyIN7testing10OnceActionIFivEEEEvPT_
FNDA:2,_ZSt8_DestroyIN7testing8internal12ReturnActionIiE4ImplIiEEEvPT_
FNDA:1,_ZSt8_DestroyIN7testing8internal26ParameterizedTestSuiteInfoI18AccountBalanceTestE17InstantiationInfoEEvPT_
FNDA:17,_ZSt8_DestroyISt10shared_ptrIN7testing8internal15ExpectationBaseEEEvPT_
FNDA:1,_ZSt8_DestroyISt10shared_ptrIN7testing8internal26ParameterizedTestSuiteInfoI18AccountBalanceTestE8TestInfoEEEvPT_
FNDA:1,_ZNSt12_Destroy_auxILb0EE9__destroyIPN7testing8internal26ParameterizedTestSuiteInfoI18AccountBalanceTestE17InstantiationInfoEEEvT_S9_
FNDA:160,_ZNSt12_Destroy_auxILb0EE9__destroyIPSt10shared_ptrIN7testing8internal15ExpectationBaseEEEEvT_S8_
FNDA:1,_ZNSt12_Destroy_auxILb0EE9__destroyIPSt10shared_ptrIN7testing8internal26ParameterizedTestSuiteInfoI18AccountBalanceTestE8TestInfoEEEEvT_SB_
FNDA:161,_ZNSt12_Destroy_auxILb1EE9__destroyIPPKvEEvT_S5_
FNDA:1,_ZNSt12_Destroy_auxILb1EE9__destroyIPPN7testing8internal30ParameterizedTestSuiteInfoBaseEEEvT_S7_
FNDA:7,_ZNSt12_Destroy_auxILb1EE9__destroyIPiEEvT_S3_
FNDA:1,_ZSt8_DestroyIPN7testing8internal26ParameterizedTestSuiteInfoI18AccountBalanceTestE17InstantiationInfoEEvT_S7_
FNDA:161,_ZSt8_DestroyIPPKvEvT_S3_
FNDA:1,_ZSt8_DestroyIPPN7testing8internal30ParameterizedTestSuiteInfoBaseEEvT_S5_
FNDA:160,_ZSt8_DestroyIPSt10shared_ptrIN7testing8internal15ExpectationBaseEEEvT_S6_
FNDA:1,_ZSt8_DestroyIPSt10shared_ptrIN7testing8internal26ParameterizedTestSuiteInfoI18AccountBalanceTestE8TestInfoEEEvT_S9_
FNDA:7,_ZSt8_DestroyIPiEvT_S1_
FNF:22
FNH:19
DA:109,4
DA:119,4
DA:120,4
DA:146,23
DA:151,23
DA:153,23
DA:160,162
DA:162,181
DA:163,19
DA:164,162
DA:172,169
DA:182,331
DA:196,331
DA:197,331
LF:14
LH:14
end_of_record
TN:
SF:/usr/include/c++/13/bits/stl_function.h
FN:1166,1167,_ZNKSt9_IdentityINSt7__cxx1112basic_stringIcSt11char_traitsIcESaIcEEEEclERKS5_
FN:407,408,_ZNKSt4lessINSt7__cxx1112basic_stringIcSt11char_traitsIcESaIcEEEEclERKS5_S8_
FN:499,502,_ZNKSt8equal_toIvEclIRKiS3_EEDTeqcl7forwardIT_Efp_Ecl7forwardIT0_Efp0_EEOS4_OS5_
FNDA:23,_ZNKSt9_IdentityINSt7__cxx1112basic_stringIcSt11char_traitsIcESaIcEEEEclERKS5_
FNDA:16,_ZNKSt4lessINSt7__cxx1112basic_stringIcSt11char_traitsIcESaIcEEEEclERKS5_S8_
FNDA:6,_ZNKSt8equal_toIvEclIRKiS3_EEDTeqcl7forwardIT_Efp_Ecl7forwardIT0_Efp0_EEOS4_OS5_
FNF:3
FNH:3
DA:407,16
DA:408,16
DA:499,6
DA:502,6
DA:1166,23
DA:1167,23
LF:6
LH:6
end_of_record
TN:
SF:/usr/include/c++/13/bits/stl_iterator.h
FN:1076,1077,_ZN9__gnu_cxx17__normal_iteratorIPKPKvSt6vectorIS2_SaIS2_EEEC2ERKS4_
FN:1076,1077,_ZN9__gnu_cxx17__normal_iteratorIPKSt10shared_ptrIN7testing8internal15ExpectationBaseEESt6vectorIS5_SaIS5_EEEC2ERKS7_
FN:1076,1077,_ZN9__gnu_cxx17__normal_iteratorIPKSt10shared_ptrIN7testing8internal26ParameterizedTestSuiteInfoI18AccountBalanceTestE8TestInfoEESt6vectorIS8_SaIS8_EEEC2ERKSA_
FN:1076,1077,_ZN9__gnu_cxx17__normal_iteratorIPKiSt6vectorIiSaIiEEEC2ERKS2_
FN:1076,1077,_ZN9__gnu_cxx17__normal_iteratorIPN7testing8internal26ParameterizedTestSuiteInfoI18AccountBalanceTestE17InstantiationInfoESt6vectorIS6_SaIS6_EEEC2ERKS7_
FN:1076,1077,_ZN9__gnu_cxx17__normal_iteratorIPPKvSt6vectorIS2_SaIS2_EEEC2ERKS3_
FN:1076,1077,_ZN9__gnu_cxx17__normal_iteratorIPPN7testing8internal30ParameterizedTestSuiteInfoBaseESt6vectorIS4_SaIS4_EEEC2ERKS5_
FN:1076,1077,_ZN9__gnu_cxx17__normal_iteratorIPSt10shared_ptrIN7testing8internal15ExpectationBaseEESt6vectorIS5_SaIS5_EEEC2ERKS6_
FN:1076,1077,_ZN9__gnu_cxx17__normal_iteratorIPSt10shared_ptrIN7testing8internal26ParameterizedTestSuiteInfoI18AccountBalanceTestE8TestInfoEESt6vectorIS8_SaIS8_EEEC2ERKS9_
FN:1083,1094,_ZN9__gnu_cxx17__normal_iteratorIPKPKvSt6vectorIS2_SaIS2_EEEC2IPS2_vEERKNS0_IT_S7_EE
FN:1099,1100,_ZNK9__gnu_cxx17__normal_iteratorIPKPKvSt6vectorIS2_SaIS2_EEEdeEv
FN:1099,1100,_ZNK9__gnu_cxx17__normal_iteratorIPKiSt6vectorIiSaIiEEEdeEv
FN:1099,1100,_ZNK9__gnu_cxx17__normal_iteratorIPPN7testing8internal30ParameterizedTestSuiteInfoBaseESt6vectorIS4_SaIS4_EEEdeEv
FN:1099,1100,_ZNK9__gnu_cxx17__normal_iteratorIPSt10shared_ptrIN7testing8internal26ParameterizedTestSuiteInfoI18AccountBalanceTestE8TestInfoEESt6vectorIS8_SaIS8_EEEdeEv
FN:1104,1105,_ZNK9__gnu_cxx17__normal_iteratorIPKSt10shared_ptrIN7testing8internal15ExpectationBaseEESt6vectorIS5_SaIS5_EEEptEv
FN:1104,1105,_ZNK9__gnu_cxx17__normal_iteratorIPN7testing8internal26ParameterizedTestSuiteInfoI18AccountBalanceTestE17InstantiationInfoESt6vectorIS6_SaIS6_EEEptEv
FN:1109,1113,_ZN9__gnu_cxx17__normal_iteratorIPKPKvSt6vectorIS2_SaIS2_EEEppEv
FN:1109,1113,_ZN9__gnu_cxx17__normal_iteratorIPKiSt6vectorIiSaIiEEEppEv
FN:1109,1113,_ZN9__gnu_cxx17__normal_iteratorIPN7testing8internal26ParameterizedTestSuiteInfoI18AccountBalanceTestE17InstantiationInfoESt6vectorIS6_SaIS6_EEEppEv
FN:1109,1113,_ZN9__gnu_cxx17__normal_iteratorIPPN7testing8internal30ParameterizedTestSuiteInfoBaseESt6vectorIS4_SaIS4_EEEppEv
FN:1109,1113,_ZN9__gnu_cxx17__normal_iteratorIPSt10shared_ptrIN7testing8internal26ParameterizedTestSuiteInfoI18AccountBalanceTestE8TestInfoEESt6vectorIS8_SaIS8_EEEppEv
FN:1123,1127,_ZN9__gnu_cxx17__normal_iteratorIPKPKvSt6vectorIS2_SaIS2_EEEmmEv
FN:1123,1127,_ZN9__gnu_cxx17__normal_iteratorIPKSt10shared_ptrIN7testing8internal15ExpectationBaseEESt6vectorIS5_SaIS5_EEEmmEv
FN:1162,1163,_ZNK9__gnu_cxx17__normal_iteratorIPKPKvSt6vectorIS2_SaIS2_EEE4baseEv
FN:1162,1163,_ZNK9__gnu_cxx17__normal_iteratorIPKSt10shared_ptrIN7testing8internal15ExpectationBaseEESt6vectorIS5_SaIS5_EEE4baseEv
FN:1162,1163,_ZNK9__gnu_cxx17__normal_iteratorIPKSt10shared_ptrIN7testing8internal26ParameterizedTestSuiteInfoI18AccountBalanceTestE8TestInfoEESt6vectorIS8_SaIS8_EEE4baseEv
FN:1162,1163,_ZNK9__gnu_cxx17__normal_iteratorIPKiSt6vectorIiSaIiEEE4baseEv
FN:1162,1163,_ZNK9__gnu_cxx17__normal_iteratorIPN7testing8internal26ParameterizedTestSuiteInfoI18AccountBalanceTestE17InstantiationInfoESt6vectorIS6_SaIS6_EEE4baseEv
FN:1162,1163,_ZNK9__gnu_cxx17__normal_iteratorIPPKvSt6vectorIS2_SaIS2_EEE4baseEv
FN:1162,1163,_ZNK9__gnu_cxx17__normal_iteratorIPPN7testing8internal30ParameterizedTestSuiteInfoBaseESt6vectorIS4_SaIS4_EEE4baseEv
FN:1162,1163,_ZNK9__gnu_cxx17__normal_iteratorIPSt10shared_ptrIN7testing8internal15ExpectationBaseEESt6vectorIS5_SaIS5_EEE4baseEv
FN:1162,1163,_ZNK9__gnu_cxx17__normal_iteratorIPSt10shared_ptrIN7testing8internal26ParameterizedTestSuiteInfoI18AccountBalanceTestE8TestInfoEESt6vectorIS8_SaIS8_EEE4baseEv
FN:1225,1228,_ZN9__gnu_cxxeqIPKPKvSt6vectorIS2_SaIS2_EEEEbRKNS_17__normal_iteratorIT_T0_EESD_
FN:1225,1228,_ZN9__gnu_cxxeqIPKSt10shared_ptrIN7testing8internal15ExpectationBaseEESt6vectorIS5_SaIS5_EEEEbRKNS_17__normal_iteratorIT_T0_EESG_
FN:1225,1228,_ZN9__gnu_cxxeqIPKSt10shared_ptrIN7testing8internal26ParameterizedTestSuiteInfoI18AccountBalanceTestE8TestInfoEESt6vectorIS8_SaIS8_EEEEbRKNS_17__normal_iteratorIT_T0_EESJ_
FN:1225,1228,_ZN9__gnu_cxxeqIPKiSt6vectorIiSaIiEEEEbRKNS_17__normal_iteratorIT_T0_EESB_
FN:1233,1236,_ZN9__gnu_cxxneIPKPKvPS2_St6vectorIS2_SaIS2_EEEEbRKNS_17__normal_iteratorIT_T1_EERKNS9_IT0_SB_EE
FN:1241,1244,_ZN9__gnu_cxxneIPN7testing8internal26ParameterizedTestSuiteInfoI18AccountBalanceTestE17InstantiationInfoESt6vectorIS6_SaIS6_EEEEbRKNS_17__normal_iteratorIT_T0_EESG_
FN:1241,1244,_ZN9__gnu_cxxneIPPN7testing8internal30ParameterizedTestSuiteInfoBaseESt6vectorIS4_SaIS4_EEEEbRKNS_17__normal_iteratorIT_T0_EESE_
FN:1241,1244,_ZN9__gnu_cxxneIPSt10shared_ptrIN7testing8internal26ParameterizedTestSuiteInfoI18AccountBalanceTestE8TestInfoEESt6vectorIS8_SaIS8_EEEEbRKNS_17__normal_iteratorIT_T0_EESI_
FN:1334,1337,_ZN9__gnu_cxxmiIPKiSt6vectorIiSaIiEEEENS_17__normal_iteratorIT_T0_E15difference_typeERKS9_SC_
FN:1334,1337,_ZN9__gnu_cxxmiIPN7testing8internal26ParameterizedTestSuiteInfoI18AccountBalanceTestE17InstantiationInfoESt6vectorIS6_SaIS6_EEEENS_17__normal_iteratorIT_T0_E15difference_typeERKSE_SH_
FN:1334,1337,_ZN9__gnu_cxxmiIPPKvSt6vectorIS2_SaIS2_EEEENS_17__normal_iteratorIT_T0_E15difference_typeERKSA_SD_
FN:1334,1337,_ZN9__gnu_cxxmiIPPN7testing8internal30ParameterizedTestSuiteInfoBaseESt6vectorIS4_SaIS4_EEEENS_17__normal_iteratorIT_T0_E15difference_typeERKSC_SF_
FN:1334,1337,_ZN9__gnu_cxxmiIPSt10shared_ptrIN7testing8internal15ExpectationBaseEESt6vectorIS5_SaIS5_EEEENS_17__normal_iteratorIT_T0_E15difference_typeERKSD_SG_
FN:1334,1337,_ZN9__gnu_cxxmiIPSt10shared_ptrIN7testing8internal26ParameterizedTestSuiteInfoI18AccountBalanceTestE8TestInfoEESt6vectorIS8_SaIS8_EEEENS_17__normal_iteratorIT_T0_E15difference_typeERKSG_SJ_
FN:1357,1359,_ZSt12__niter_baseIPKiSt6vectorIiSaIiEEET_N9__gnu_cxx17__normal_iteratorIS5_T0_EE
FN:1519,1520,_ZNSt13move_iteratorIPN7testing8internal26ParameterizedTestSuiteInfoI18AccountBalanceTestE17InstantiationInfoEEC2ES6_
FN:1519,1520,_ZNSt13move_iteratorIPPKvEC2ES2_
FN:1519,1520,_ZNSt13move_iteratorIPPN7testing8internal30ParameterizedTestSuiteInfoBaseEEC2ES4_
FN:1519,1520,_ZNSt13move_iteratorIPSt10shared_ptrIN7testing8internal15ExpectationBaseEEEC2ES5_
FN:1519,1520,_ZNSt13move_iteratorIPSt10shared_ptrIN7testing8internal26ParameterizedTestSuiteInfoI18AccountBalanceTestE8TestInfoEEEC2ES8_
FN:1545,1546,_ZNKSt13move_iteratorIPN7testing8internal26ParameterizedTestSuiteInfoI18AccountBalanceTestE17InstantiationInfoEE4baseEv
FN:1545,1546,_ZNKSt13move_iteratorIPPKvE4baseEv
FN:1545,1546,_ZNKSt13move_iteratorIPPN7testing8internal30ParameterizedTestSuiteInfoBaseEE4baseEv
FN:1545,1546,_ZNKSt13move_iteratorIPSt10shared_ptrIN7testing8internal15ExpectationBaseEEE4baseEv
FN:1545,1546,_ZNKSt13move_iteratorIPSt10shared_ptrIN7testing8internal26ParameterizedTestSuiteInfoI18AccountBalanceTestE8TestInfoEEE4baseEv
FN:1561,1565,_ZNKSt13move_iteratorIPN7testing8internal26ParameterizedTestSuiteInfoI18AccountBalanceTestE17InstantiationInfoEEdeEv
FN:1561,1565,_ZNKSt13move_iteratorIPSt10shared_ptrIN7testing8internal15ExpectationBaseEEEdeEv
FN:1561,1565,_ZNKSt13move_iteratorIPSt10shared_ptrIN7testing8internal26ParameterizedTestSuiteInfoI18AccountBalanceTestE8TestInfoEEEdeEv
FN:1574,1578,_ZNSt13move_iteratorIPN7testing8internal26ParameterizedTestSuiteInfoI18AccountBalanceTestE17InstantiationInfoEEppEv
FN:1574,1578,_ZNSt13move_iteratorIPSt10shared_ptrIN7testing8internal15ExpectationBaseEEEppEv
FN:1574,1578,_ZNSt13move_iteratorIPSt10shared_ptrIN7testing8internal26ParameterizedTestSuiteInfoI18AccountBalanceTestE8TestInfoEEEppEv
FN:1748,1750,_ZSteqIPN7testing8internal26ParameterizedTestSuiteInfoI18AccountBalanceTestE17InstantiationInfoEEbRKSt13move_iteratorIT_ESB_
FN:1748,1750,_ZSteqIPSt10shared_ptrIN7testing8internal15ExpectationBaseEEEbRKSt13move_iteratorIT_ESA_
FN:1748,1750,_ZSteqIPSt10shared_ptrIN7testing8internal26ParameterizedTestSuiteInfoI18AccountBalanceTestE8TestInfoEEEbRKSt13move_iteratorIT_ESD_
FN:1763,1765,_ZStneIPN7testing8internal26ParameterizedTestSuiteInfoI18AccountBalanceTestE17InstantiationInfoEEbRKSt13move_iteratorIT_ESB_
FN:1763,1765,_ZStneIPSt10shared_ptrIN7testing8internal15ExpectationBaseEEEbRKSt13move_iteratorIT_ESA_
FN:1763,1765,_ZStneIPSt10shared_ptrIN7testing8internal26ParameterizedTestSuiteInfoI18AccountBalanceTestE8TestInfoEEEbRKSt13move_iteratorIT_ESD_
FN:1832,1833,_ZSt32__make_move_if_noexcept_iteratorIN7testing8internal26ParameterizedTestSuiteInfoI18AccountBalanceTestE17InstantiationInfoESt13move_iteratorIPS5_EET0_PT_
FN:1832,1833,_ZSt32__make_move_if_noexcept_iteratorIPKvSt13move_iteratorIPS1_EET0_PT_
FN:1832,1833,_ZSt32__make_move_if_noexcept_iteratorIPN7testing8internal30ParameterizedTestSuiteInfoBaseESt13move_iteratorIPS3_EET0_PT_
FN:1832,1833,_ZSt32__make_move_if_noexcept_iteratorISt10shared_ptrIN7testing8internal15ExpectationBaseEESt13move_iteratorIPS4_EET0_PT_
FN:1832,1833,_ZSt32__make_move_if_noexcept_iteratorISt10shared_ptrIN7testing8internal26ParameterizedTestSuiteInfoI18AccountBalanceTestE8TestInfoEESt13move_iteratorIPS7_EET0_PT_
FN:195,198,_ZNSt16reverse_iteratorIN9__gnu_cxx17__normal_iteratorIPKPKvSt6vectorIS3_SaIS3_EEEEEC2ES9_
FN:195,198,_ZNSt16reverse_iteratorIN9__gnu_cxx17__normal_iteratorIPKSt10shared_ptrIN7testing8internal15ExpectationBaseEESt6vectorIS6_SaIS6_EEEEEC2ESC_
FN:248,250,_ZNKSt16reverse_iteratorIN9__gnu_cxx17__normal_iteratorIPKPKvSt6vectorIS3_SaIS3_EEEEE4baseEv
FN:248,250,_ZNKSt16reverse_iteratorIN9__gnu_cxx17__normal_iteratorIPKSt10shared_ptrIN7testing8internal15ExpectationBaseEESt6vectorIS6_SaIS6_EEEEE4baseEv
FN:264,268,_ZNKSt16reverse_iteratorIN9__gnu_cxx17__normal_iteratorIPKPKvSt6vectorIS3_SaIS3_EEEEEdeEv
FN:277,288,_ZNKSt16reverse_iteratorIN9__gnu_cxx17__normal_iteratorIPKSt10shared_ptrIN7testing8internal15ExpectationBaseEESt6vectorIS6_SaIS6_EEEEEptEv
FN:296,300,_ZNSt16reverse_iteratorIN9__gnu_cxx17__normal_iteratorIPKPKvSt6vectorIS3_SaIS3_EEEEEppEv
FN:296,300,_ZNSt16reverse_iteratorIN9__gnu_cxx17__normal_iteratorIPKSt10shared_ptrIN7testing8internal15ExpectationBaseEESt6vectorIS6_SaIS6_EEEEEppEv
FN:2968,2970,_ZSt12__miter_baseIPPKvEDTcl12__miter_basecldtfp_4baseEEESt13move_iteratorIT_E
FN:2968,2970,_ZSt12__miter_baseIPPN7testing8internal30ParameterizedTestSuiteInfoBaseEEDTcl12__miter_basecldtfp_4baseEEESt13move_iteratorIT_E
FN:430,431,_ZNSt16reverse_iteratorIN9__gnu_cxx17__normal_iteratorIPKSt10shared_ptrIN7testing8internal15ExpectationBaseEESt6vectorIS6_SaIS6_EEEEE13_S_to_pointerISC_EES8_T_
FN:448,450,_ZSteqIN9__gnu_cxx17__normal_iteratorIPKPKvSt6vectorIS3_SaIS3_EEEEEbRKSt16reverse_iteratorIT_ESE_
FN:448,450,_ZSteqIN9__gnu_cxx17__normal_iteratorIPKSt10shared_ptrIN7testing8internal15ExpectationBaseEESt6vectorIS6_SaIS6_EEEEEbRKSt16reverse_iteratorIT_ESH_
FN:462,464,_ZStneIN9__gnu_cxx17__normal_iteratorIPKPKvSt6vectorIS3_SaIS3_EEEEEbRKSt16reverse_iteratorIT_ESE_
FN:462,464,_ZStneIN9__gnu_cxx17__normal_iteratorIPKSt10shared_ptrIN7testing8internal15ExpectationBaseEESt6vectorIS6_SaIS6_EEEEEbRKSt16reverse_iteratorIT_ESH_
FNDA:28,_ZN9__gnu_cxx17__normal_iteratorIPKPKvSt6vectorIS2_SaIS2_EEEC2ERKS4_
FNDA:33,_ZN9__gnu_cxx17__normal_iteratorIPKSt10shared_ptrIN7testing8internal15ExpectationBaseEESt6vectorIS5_SaIS5_EEEC2ERKS7_
FNDA:0,_ZN9__gnu_cxx17__normal_iteratorIPKSt10shared_ptrIN7testing8internal26ParameterizedTestSuiteInfoI18AccountBalanceTestE8TestInfoEESt6vectorIS8_SaIS8_EEEC2ERKSA_
FNDA:8,_ZN9__gnu_cxx17__normal_iteratorIPKiSt6vectorIiSaIiEEEC2ERKS2_
FNDA:5,_ZN9__gnu_cxx17__normal_iteratorIPN7testing8internal26ParameterizedTestSuiteInfoI18AccountBalanceTestE17InstantiationInfoESt6vectorIS6_SaIS6_EEEC2ERKS7_
FNDA:184,_ZN9__gnu_cxx17__normal_iteratorIPPKvSt6vectorIS2_SaIS2_EEEC2ERKS3_
FNDA:10,_ZN9__gnu_cxx17__normal_iteratorIPPN7testing8internal30ParameterizedTestSuiteInfoBaseESt6vectorIS4_SaIS4_EEEC2ERKS5_
FNDA:195,_ZN9__gnu_cxx17__normal_iteratorIPSt10shared_ptrIN7testing8internal15ExpectationBaseEESt6vectorIS5_SaIS5_EEEC2ERKS6_
FNDA:5,_ZN9__gnu_cxx17__normal_iteratorIPSt10shared_ptrIN7testing8internal26ParameterizedTestSuiteInfoI18AccountBalanceTestE8TestInfoEESt6vectorIS8_SaIS8_EEEC2ERKS9_
FNDA:89,_ZN9__gnu_cxx17__normal_iteratorIPKPKvSt6vectorIS2_SaIS2_EEEC2IPS2_vEERKNS0_IT_S7_EE
FNDA:2,_ZNK9__gnu_cxx17__normal_iteratorIPKPKvSt6vectorIS2_SaIS2_EEEdeEv
FNDA:4,_ZNK9__gnu_cxx17__normal_iteratorIPKiSt6vectorIiSaIiEEEdeEv
FNDA:3,_ZNK9__gnu_cxx17__normal_iteratorIPPN7testing8internal30ParameterizedTestSuiteInfoBaseESt6vectorIS4_SaIS4_EEEdeEv
FNDA:1,_ZNK9__gnu_cxx17__normal_iteratorIPSt10shared_ptrIN7testing8internal26ParameterizedTestSuiteInfoI18AccountBalanceTestE8TestInfoEESt6vectorIS8_SaIS8_EEEdeEv
FNDA:34,_ZNK9__gnu_cxx17__normal_iteratorIPKSt10shared_ptrIN7testing8internal15ExpectationBaseEESt6vectorIS5_SaIS5_EEEptEv
FNDA:5,_ZNK9__gnu_cxx17__normal_iteratorIPN7testing8internal26ParameterizedTestSuiteInfoI18AccountBalanceTestE17InstantiationInfoESt6vectorIS6_SaIS6_EEEptEv
FNDA:2,_ZN9__gnu_cxx17__normal_iteratorIPKPKvSt6vectorIS2_SaIS2_EEEppEv
FNDA:4,_ZN9__gnu_cxx17__normal_iteratorIPKiSt6vectorIiSaIiEEEppEv
FNDA:1,_ZN9__gnu_cxx17__normal_iteratorIPN7testing8internal26ParameterizedTestSuiteInfoI18AccountBalanceTestE17InstantiationInfoESt6vectorIS6_SaIS6_EEEppEv
FNDA:2,_ZN9__gnu_cxx17__normal_iteratorIPPN7testing8internal30ParameterizedTestSuiteInfoBaseESt6vectorIS4_SaIS4_EEEppEv
FNDA:1,_ZN9__gnu_cxx17__normal_iteratorIPSt10shared_ptrIN7testing8internal26ParameterizedTestSuiteInfoI18AccountBalanceTestE8TestInfoEESt6vectorIS8_SaIS8_EEEppEv
FNDA:0,_ZN9__gnu_cxx17__normal_iteratorIPKPKvSt6vectorIS2_SaIS2_EEEmmEv
FNDA:18,_ZN9__gnu_cxx17__normal_iteratorIPKSt10shared_ptrIN7testing8internal15ExpectationBaseEESt6vectorIS5_SaIS5_EEEmmEv
FNDA:119,_ZNK9__gnu_cxx17__normal_iteratorIPKPKvSt6vectorIS2_SaIS2_EEE4baseEv
FNDA:123,_ZNK9__gnu_cxx17__normal_iteratorIPKSt10shared_ptrIN7testing8internal15ExpectationBaseEESt6vectorIS5_SaIS5_EEE4baseEv
FNDA:0,_ZNK9__gnu_cxx17__normal_iteratorIPKSt10shared_ptrIN7testing8internal26ParameterizedTestSuiteInfoI18AccountBalanceTestE8TestInfoEESt6vectorIS8_SaIS8_EEE4baseEv
FNDA:14,_ZNK9__gnu_cxx17__normal_iteratorIPKiSt6vectorIiSaIiEEE4baseEv
FNDA:8,_ZNK9__gnu_cxx17__normal_iteratorIPN7testing8internal26ParameterizedTestSuiteInfoI18AccountBalanceTestE17InstantiationInfoESt6vectorIS6_SaIS6_EEE4baseEv
FNDA:188,_ZNK9__gnu_cxx17__normal_iteratorIPPKvSt6vectorIS2_SaIS2_EEE4baseEv
FNDA:16,_ZNK9__gnu_cxx17__normal_iteratorIPPN7testing8internal30ParameterizedTestSuiteInfoBaseESt6vectorIS4_SaIS4_EEE4baseEv
FNDA:229,_ZNK9__gnu_cxx17__normal_iteratorIPSt10shared_ptrIN7testing8internal15ExpectationBaseEESt6vectorIS5_SaIS5_EEE4baseEv
FNDA:8,_ZNK9__gnu_cxx17__normal_iteratorIPSt10shared_ptrIN7testing8internal26ParameterizedTestSuiteInfoI18AccountBalanceTestE8TestInfoEESt6vectorIS8_SaIS8_EEE4baseEv
FNDA:14,_ZN9__gnu_cxxeqIPKPKvSt6vectorIS2_SaIS2_EEEEbRKNS_17__normal_iteratorIT_T0_EESD_
FNDA:17,_ZN9__gnu_cxxeqIPKSt10shared_ptrIN7testing8internal15ExpectationBaseEESt6vectorIS5_SaIS5_EEEEbRKNS_17__normal_iteratorIT_T0_EESG_
FNDA:0,_ZN9__gnu_cxxeqIPKSt10shared_ptrIN7testing8internal26ParameterizedTestSuiteInfoI18AccountBalanceTestE8TestInfoEESt6vectorIS8_SaIS8_EEEEbRKNS_17__normal_iteratorIT_T0_EESJ_
FNDA:5,_ZN9__gnu_cxxeqIPKiSt6vectorIiSaIiEEEEbRKNS_17__normal_iteratorIT_T0_EESB_
FNDA:91,_ZN9__gnu_cxxneIPKPKvPS2_St6vectorIS2_SaIS2_EEEEbRKNS_17__normal_iteratorIT_T1_EERKNS9_IT0_SB_EE
FNDA:2,_ZN9__gnu_cxxneIPN7testing8internal26ParameterizedTestSuiteInfoI18AccountBalanceTestE17InstantiationInfoESt6vectorIS6_SaIS6_EEEEbRKNS_17__normal_iteratorIT_T0_EESG_
FNDA:6,_ZN9__gnu_cxxneIPPN7testing8internal30ParameterizedTestSuiteInfoBaseESt6vectorIS4_SaIS4_EEEEbRKNS_17__normal_iteratorIT_T0_EESE_
FNDA:2,_ZN9__gnu_cxxneIPSt10shared_ptrIN7testing8internal26ParameterizedTestSuiteInfoI18AccountBalanceTestE8TestInfoEESt6vectorIS8_SaIS8_EEEEbRKNS_17__normal_iteratorIT_T0_EESI_
FNDA:1,_ZN9__gnu_cxxmiIPKiSt6vectorIiSaIiEEEENS_17__normal_iteratorIT_T0_E15difference_typeERKS9_SC_
FNDA:1,_ZN9__gnu_cxxmiIPN7testing8internal26ParameterizedTestSuiteInfoI18AccountBalanceTestE17InstantiationInfoESt6vectorIS6_SaIS6_EEEENS_17__normal_iteratorIT_T0_E15difference_typeERKSE_SH_
FNDA:2,_ZN9__gnu_cxxmiIPPKvSt6vectorIS2_SaIS2_EEEENS_17__normal_iteratorIT_T0_E15difference_typeERKSA_SD_
FNDA:1,_ZN9__gnu_cxxmiIPPN7testing8internal30ParameterizedTestSuiteInfoBaseESt6vectorIS4_SaIS4_EEEENS_17__normal_iteratorIT_T0_E15difference_typeERKSC_SF_
FNDA:17,_ZN9__gnu_cxxmiIPSt10shared_ptrIN7testing8internal15ExpectationBaseEESt6vectorIS5_SaIS5_EEEENS_17__normal_iteratorIT_T0_E15difference_typeERKSD_SG_
FNDA:1,_ZN9__gnu_cxxmiIPSt10shared_ptrIN7testing8internal26ParameterizedTestSuiteInfoI18AccountBalanceTestE8TestInfoEESt6vectorIS8_SaIS8_EEEENS_17__normal_iteratorIT_T0_E15difference_typeERKSG_SJ_
FNDA:2,_ZSt12__niter_baseIPKiSt6vectorIiSaIiEEET_N9__gnu_cxx17__normal_iteratorIS5_T0_EE
FNDA:0,_ZNSt13move_iteratorIPN7testing8internal26ParameterizedTestSuiteInfoI18AccountBalanceTestE17InstantiationInfoEEC2ES6_
FNDA:0,_ZNSt13move_iteratorIPPKvEC2ES2_
FNDA:0,_ZNSt13move_iteratorIPPN7testing8internal30ParameterizedTestSuiteInfoBaseEEC2ES4_
FNDA:0,_ZNSt13move_iteratorIPSt10shared_ptrIN7testing8internal15ExpectationBaseEEEC2ES5_
FNDA:0,_ZNSt13move_iteratorIPSt10shared_ptrIN7testing8internal26ParameterizedTestSuiteInfoI18AccountBalanceTestE8TestInfoEEEC2ES8_
FNDA:0,_ZNKSt13move_iteratorIPN7testing8internal26ParameterizedTestSuiteInfoI18AccountBalanceTestE17InstantiationInfoEE4baseEv
FNDA:0,_ZNKSt13move_iteratorIPPKvE4baseEv
FNDA:0,_ZNKSt13move_iteratorIPPN7testing8internal30ParameterizedTestSuiteInfoBaseEE4baseEv
FNDA:0,_ZNKSt13move_iteratorIPSt10shared_ptrIN7testing8internal15ExpectationBaseEEE4baseEv
FNDA:0,_ZNKSt13move_iteratorIPSt10shared_ptrIN7testing8internal26ParameterizedTestSuiteInfoI18AccountBalanceTestE8TestInfoEEE4baseEv
FNDA:0,_ZNKSt13move_iteratorIPN7testing8internal26ParameterizedTestSuiteInfoI18AccountBalanceTestE17InstantiationInfoEEdeEv
FNDA:0,_ZNKSt13move_iteratorIPSt10shared_ptrIN7testing8internal15ExpectationBaseEEEdeEv
FNDA:0,_ZNKSt13move_iteratorIPSt10shared_ptrIN7testing8internal26ParameterizedTestSuiteInfoI18AccountBalanceTestE8TestInfoEEEdeEv
FNDA:0,_ZNSt13move_iteratorIPN7testing8internal26ParameterizedTestSuiteInfoI18AccountBalanceTestE17InstantiationInfoEEppEv
FNDA:0,_ZNSt13move_iteratorIPSt10shared_ptrIN7testing8internal15ExpectationBaseEEEppEv
FNDA:0,_ZNSt13move_iteratorIPSt10shared_ptrIN7testing8internal26ParameterizedTestSuiteInfoI18AccountBalanceTestE8TestInfoEEEppEv
FNDA:0,_ZSteqIPN7testing8internal26ParameterizedTestSuiteInfoI18AccountBalanceTestE17InstantiationInfoEEbRKSt13move_iteratorIT_ESB_
FNDA:0,_ZSteqIPSt10shared_ptrIN7testing8internal15ExpectationBaseEEEbRKSt13move_iteratorIT_ESA_
FNDA:0,_ZSteqIPSt10shared_ptrIN7testing8internal26ParameterizedTestSuiteInfoI18AccountBalanceTestE8TestInfoEEEbRKSt13move_iteratorIT_ESD_
FNDA:0,_ZStneIPN7testing8internal26ParameterizedTestSuiteInfoI18AccountBalanceTestE17InstantiationInfoEEbRKSt13move_iteratorIT_ESB_
FNDA:0,_ZStneIPSt10shared_ptrIN7testing8internal15ExpectationBaseEEEbRKSt13move_iteratorIT_ESA_
FNDA:0,_ZStneIPSt10shared_ptrIN7testing8internal26ParameterizedTestSuiteInfoI18AccountBalanceTestE8TestInfoEEEbRKSt13move_iteratorIT_ESD_
FNDA:0,_ZSt32__make_move_if_noexcept_iteratorIN7testing8internal26ParameterizedTestSuiteInfoI18AccountBalanceTestE17InstantiationInfoESt13move_iteratorIPS5_EET0_PT_
FNDA:0,_ZSt32__make_move_if_noexcept_iteratorIPKvSt13move_iteratorIPS1_EET0_PT_
FNDA:0,_ZSt32__make_move_if_noexcept_iteratorIPN7testing8internal30ParameterizedTestSuiteInfoBaseESt13move_iteratorIPS3_EET0_PT_
FNDA:0,_ZSt32__make_move_if_noexcept_iteratorISt10shared_ptrIN7testing8internal15ExpectationBaseEESt13move_iteratorIPS4_EET0_PT_
FNDA:0,_ZSt32__make_move_if_noexcept_iteratorISt10shared_ptrIN7testing8internal26ParameterizedTestSuiteInfoI18AccountBalanceTestE8TestInfoEESt13move_iteratorIPS7_EET0_PT_
FNDA:28,_ZNSt16reverse_iteratorIN9__gnu_cxx17__normal_iteratorIPKPKvSt6vectorIS3_SaIS3_EEEEEC2ES9_
FNDA:33,_ZNSt16reverse_iteratorIN9__gnu_cxx17__normal_iteratorIPKSt10shared_ptrIN7testing8internal15ExpectationBaseEESt6vectorIS6_SaIS6_EEEEEC2ESC_
FNDA:28,_ZNKSt16reverse_iteratorIN9__gnu_cxx17__normal_iteratorIPKPKvSt6vectorIS3_SaIS3_EEEEE4baseEv
FNDA:34,_ZNKSt16reverse_iteratorIN9__gnu_cxx17__normal_iteratorIPKSt10shared_ptrIN7testing8internal15ExpectationBaseEESt6vectorIS6_SaIS6_EEEEE4baseEv
FNDA:0,_ZNKSt16reverse_iteratorIN9__gnu_cxx17__normal_iteratorIPKPKvSt6vectorIS3_SaIS3_EEEEEdeEv
FNDA:17,_ZNKSt16reverse_iteratorIN9__gnu_cxx17__normal_iteratorIPKSt10shared_ptrIN7testing8internal15ExpectationBaseEESt6vectorIS6_SaIS6_EEEEEptEv
FNDA:0,_ZNSt16reverse_iteratorIN9__gnu_cxx17__normal_iteratorIPKPKvSt6vectorIS3_SaIS3_EEEEEppEv
FNDA:1,_ZNSt16reverse_iteratorIN9__gnu_cxx17__normal_iteratorIPKSt10shared_ptrIN7testing8internal15ExpectationBaseEESt6vectorIS6_SaIS6_EEEEEppEv
FNDA:0,_ZSt12__miter_baseIPPKvEDTcl12__miter_basecldtfp_4baseEEESt13move_iteratorIT_E
FNDA:0,_ZSt12__miter_baseIPPN7testing8internal30ParameterizedTestSuiteInfoBaseEEDTcl12__miter_basecldtfp_4baseEEESt13move_iteratorIT_E
FNDA:17,_ZNSt16reverse_iteratorIN9__gnu_cxx17__normal_iteratorIPKSt10shared_ptrIN7testing8internal15ExpectationBaseEESt6vectorIS6_SaIS6_EEEEE13_S_to_pointerISC_EES8_T_
FNDA:14,_ZSteqIN9__gnu_cxx17__normal_iteratorIPKPKvSt6vectorIS3_SaIS3_EEEEEbRKSt16reverse_iteratorIT_ESE_
FNDA:17,_ZSteqIN9__gnu_cxx17__normal_iteratorIPKSt10shared_ptrIN7testing8internal15ExpectationBaseEESt6vectorIS6_SaIS6_EEEEEbRKSt16reverse_iteratorIT_ESH_
FNDA:14,_ZStneIN9__gnu_cxx17__normal_iteratorIPKPKvSt6vectorIS3_SaIS3_EEEEEbRKSt16reverse_iteratorIT_ESE_
FNDA:17,_ZStneIN9__gnu_cxx17__normal_iteratorIPKSt10shared_ptrIN7testing8internal15ExpectationBaseEESt6vectorIS6_SaIS6_EEEEEbRKSt16reverse_iteratorIT_ESH_
FNF:89
FNH:54
DA:195,61
DA:197,61
DA:198,61
DA:248,62
DA:250,62
DA:264,0
DA:266,0
DA:267,0
DA:277,17
DA:285,17
DA:286,17
DA:287,17
DA:296,1
DA:298,1
DA:299,1
DA:430,17
DA:431,17
DA:448,31
DA:450,31
DA:462,31
DA:464,31
DA:1076,468
DA:1077,468
DA:1083,89
DA:1094,89
DA:1099,10
DA:1100,10
DA:1104,39
DA:1105,39
DA:1109,10
DA:1111,10
DA:1112,10
DA:1123,18
DA:1125,18
DA:1126,18
DA:1162,705
DA:1163,705
DA:1225,36
DA:1228,36
DA:1233,91
DA:1236,91
DA:1241,10
DA:1244,10
DA:1334,23
DA:1337,23
DA:1357,2
DA:1359,2
DA:1519,0
DA:1520,0
DA:1545,0
DA:1546,0
DA:1561,0
DA:1565,0
DA:1574,0
DA:1576,0
DA:1577,0
DA:1748,0
DA:1750,0
DA:1763,0
DA:1765,0
DA:1832,0
DA:1833,0
DA:2968,0
DA:2970,0
LF:64
LH:44
end_of_record
TN:
SF:/usr/include/c++/13/bits/stl_iterator_base_funcs.h
FNF:0
FNH:0
DA:106,1
DA:151,3
DA:152,4
LF:3
LH:3
end_of_record
TN:
SF:/usr/include/c++/13/bits/stl_iterator_base_types.h
FNF:0
FNH:0
DA:240,3
LF:1
LH:1
end_of_record
TN:
SF:/usr/include/c++/13/bits/stl_pair.h
FN:558,559,_ZNSt4pairIPSt18_Rb_tree_node_baseS1_EC2IS1_S1_Lb1EEERKS1_S5_
FN:687,689,_ZNSt4pairIPSt18_Rb_tree_node_baseS1_EC2IRPSt13_Rb_tree_nodeINSt7__cxx1112basic_stringIcSt11char_traitsIcESaIcEEEERS1_Lb1EEEOT_OT0_
FN:687,689,_ZNSt4pairISt17_Rb_tree_iteratorINSt7__cxx1112basic_stringIcSt11char_traitsIcESaIcEEEEbEC2IS7_bLb1EEEOT_OT0_
FN:687,689,_ZNSt4pairISt23_Rb_tree_const_iteratorINSt7__cxx1112basic_stringIcSt11char_traitsIcESaIcEEEEbEC2IRSt17_Rb_tree_iteratorIS6_ERbLb1EEEOT_OT0_
FNDA:2,_ZNSt4pairIPSt18_Rb_tree_node_baseS1_EC2IS1_S1_Lb1EEERKS1_S5_
FNDA:4,_ZNSt4pairIPSt18_Rb_tree_node_baseS1_EC2IRPSt13_Rb_tree_nodeINSt7__cxx1112basic_stringIcSt11char_traitsIcESaIcEEEERS1_Lb1EEEOT_OT0_
FNDA:4,_ZNSt4pairISt17_Rb_tree_iteratorINSt7__cxx1112basic_stringIcSt11char_traitsIcESaIcEEEEbEC2IS7_bLb1EEEOT_OT0_
FNDA:4,_ZNSt4pairISt23_Rb_tree_const_iteratorINSt7__cxx1112basic_stringIcSt11char_traitsIcESaIcEEEEbEC2IRSt17_Rb_tree_iteratorIS6_ERbLb1EEEOT_OT0_
FNF:4
FNH:4
DA:558,2
DA:559,2
DA:687,12
DA:688,12
DA:689,12
LF:5
LH:5
end_of_record
TN:
SF:/usr/include/c++/13/bits/stl_set.h
FN:169,169,_ZNSt3setIN7testing11ExpectationENS1_4LessESaIS1_EEC2Ev
FN:169,169,_ZNSt3setINSt7__cxx1112basic_stringIcSt11char_traitsIcESaIcEEESt4lessIS5_ESaIS5_EEC2Ev
FN:283,283,_ZNSt3setIN7testing11ExpectationENS1_4LessESaIS1_EED2Ev
FN:283,283,_ZNSt3setINSt7__cxx1112basic_stringIcSt11char_traitsIcESaIcEEESt4lessIS5_ESaIS5_EED2Ev
FN:346,347,_ZNKSt3setIN7testing11ExpectationENS1_4LessESaIS1_EE5beginEv
FN:355,356,_ZNKSt3setIN7testing11ExpectationENS1_4LessESaIS1_EE3endEv
FN:511,516,_ZNSt3setINSt7__cxx1112basic_stringIcSt11char_traitsIcESaIcEEESt4lessIS5_ESaIS5_EE6insertERKS5_
FN:750,751,_ZNKSt3setINSt7__cxx1112basic_stringIcSt11char_traitsIcESaIcEEESt4lessIS5_ESaIS5_EE5countERKS5_
FNDA:17,_ZNSt3setIN7testing11ExpectationENS1_4LessESaIS1_EEC2Ev
FNDA:2,_ZNSt3setINSt7__cxx1112basic_stringIcSt11char_traitsIcESaIcEEESt4lessIS5_ESaIS5_EEC2Ev
FNDA:17,_ZNSt3setIN7testing11ExpectationENS1_4LessESaIS1_EED2Ev
FNDA:2,_ZNSt3setINSt7__cxx1112basic_stringIcSt11char_traitsIcESaIcEEESt4lessIS5_ESaIS5_EED2Ev
FNDA:103,_ZNKSt3setIN7testing11ExpectationENS1_4LessESaIS1_EE5beginEv
FNDA:185,_ZNKSt3setIN7testing11ExpectationENS1_4LessESaIS1_EE3endEv
FNDA:4,_ZNSt3setINSt7__cxx1112basic_stringIcSt11char_traitsIcESaIcEEESt4lessIS5_ESaIS5_EE6insertERKS5_
FNDA:4,_ZNKSt3setINSt7__cxx1112basic_stringIcSt11char_traitsIcESaIcEEESt4lessIS5_ESaIS5_EE5countERKS5_
FNF:8
FNH:8
DA:169,19
DA:283,19
DA:346,103
DA:347,103
DA:355,185
DA:356,185
DA:511,4
DA:514,4
DA:515,4
DA:750,4
DA:751,4
LF:11
LH:11
end_of_record
TN:
SF:/usr/include/c++/13/bits/stl_tree.h
FN:1001,1002,_ZNKSt8_Rb_treeIN7testing11ExpectationES1_St9_IdentityIS1_ENS1_4LessESaIS1_EE5beginEv
FN:1009,1010,_ZNKSt8_Rb_treeIN7testing11ExpectationES1_St9_IdentityIS1_ENS1_4LessESaIS1_EE3endEv
FN:1009,1010,_ZNKSt8_Rb_treeINSt7__cxx1112basic_stringIcSt11char_traitsIcESaIcEEES5_St9_IdentityIS5_ESt4lessIS5_ESaIS5_EE3endEv
FN:146,150,_ZNSt20_Rb_tree_key_compareIN7testing11Expectation4LessEEC2Ev
FN:146,150,_ZNSt20_Rb_tree_key_compareISt4lessINSt7__cxx1112basic_stringIcSt11char_traitsIcESaIcEEEEEC2Ev
FN:173,177,_ZNSt15_Rb_tree_headerC2Ev
FN:1818,1837,_ZNSt8_Rb_treeINSt7__cxx1112basic_stringIcSt11char_traitsIcESaIcEEES5_St9_IdentityIS5_ESt4lessIS5_ESaIS5_EE10_M_insert_IRKS5_NSB_11_Alloc_nodeEEESt17_Rb_tree_iteratorIS5_EPSt18_Rb_tree_node_baseSJ_OT_RT0_
FN:1930,1941,_ZNSt8_Rb_treeIN7testing11ExpectationES1_St9_IdentityIS1_ENS1_4LessESaIS1_EE8_M_eraseEPSt13_Rb_tree_nodeIS1_E
FN:1930,1941,_ZNSt8_Rb_treeINSt7__cxx1112basic_stringIcSt11char_traitsIcESaIcEEES5_St9_IdentityIS5_ESt4lessIS5_ESaIS5_EE8_M_eraseEPSt13_Rb_tree_nodeIS5_E
FN:1963,1973,_ZNKSt8_Rb_treeINSt7__cxx1112basic_stringIcSt11char_traitsIcESaIcEEES5_St9_IdentityIS5_ESt4lessIS5_ESaIS5_EE14_M_lower_boundEPKSt13_Rb_tree_nodeIS5_EPKSt18_Rb_tree_node_baseRKS5_
FN:206,212,_ZNSt15_Rb_tree_header8_M_resetEv
FN:2108,2132,_ZNSt8_Rb_treeINSt7__cxx1112basic_stringIcSt11char_traitsIcESaIcEEES5_St9_IdentityIS5_ESt4lessIS5_ESaIS5_EE24_M_get_insert_unique_posERKS5_
FN:2162,2182,_ZNSt8_Rb_treeINSt7__cxx1112basic_stringIcSt11char_traitsIcESaIcEEES5_St9_IdentityIS5_ESt4lessIS5_ESaIS5_EE16_M_insert_uniqueIRKS5_EESt4pairISt17_Rb_tree_iteratorIS5_EbEOT_
FN:234,235,_ZNSt13_Rb_tree_nodeIN7testing11ExpectationEE9_M_valptrEv
FN:234,235,_ZNSt13_Rb_tree_nodeINSt7__cxx1112basic_stringIcSt11char_traitsIcESaIcEEEE9_M_valptrEv
FN:238,239,_ZNKSt13_Rb_tree_nodeIN7testing11ExpectationEE9_M_valptrEv
FN:238,239,_ZNKSt13_Rb_tree_nodeINSt7__cxx1112basic_stringIcSt11char_traitsIcESaIcEEEE9_M_valptrEv
FN:2542,2549,_ZNKSt8_Rb_treeINSt7__cxx1112basic_stringIcSt11char_traitsIcESaIcEEES5_St9_IdentityIS5_ESt4lessIS5_ESaIS5_EE4findERKS5_
FN:273,274,_ZNSt17_Rb_tree_iteratorINSt7__cxx1112basic_stringIcSt11char_traitsIcESaIcEEEEC2EPSt18_Rb_tree_node_base
FN:300,304,_ZNSt17_Rb_tree_iteratorINSt7__cxx1112basic_stringIcSt11char_traitsIcESaIcEEEEmmEv
FN:315,316,_ZSteqRKSt17_Rb_tree_iteratorINSt7__cxx1112basic_stringIcSt11char_traitsIcESaIcEEEES8_
FN:347,348,_ZNSt23_Rb_tree_const_iteratorIN7testing11ExpectationEEC2EPKSt18_Rb_tree_node_base
FN:347,348,_ZNSt23_Rb_tree_const_iteratorINSt7__cxx1112basic_stringIcSt11char_traitsIcESaIcEEEEC2EPKSt18_Rb_tree_node_base
FN:350,351,_ZNSt23_Rb_tree_const_iteratorINSt7__cxx1112basic_stringIcSt11char_traitsIcESaIcEEEEC2ERKSt17_Rb_tree_iteratorIS5_E
FN:362,363,_ZNKSt23_Rb_tree_const_iteratorIN7testing11ExpectationEEptEv
FN:366,370,_ZNSt23_Rb_tree_const_iteratorIN7testing11ExpectationEEppEv
FN:396,397,_ZSteqRKSt23_Rb_tree_const_iteratorINSt7__cxx1112basic_stringIcSt11char_traitsIcESaIcEEEES8_
FN:401,402,_ZStneRKSt23_Rb_tree_const_iteratorIN7testing11ExpectationEES4_
FN:525,526,_ZNSt8_Rb_treeINSt7__cxx1112basic_stringIcSt11char_traitsIcESaIcEEES5_St9_IdentityIS5_ESt4lessIS5_ESaIS5_EE11_Alloc_nodeC2ERSB_
FN:530,531,_ZNKSt8_Rb_treeINSt7__cxx1112basic_stringIcSt11char_traitsIcESaIcEEES5_St9_IdentityIS5_ESt4lessIS5_ESaIS5_EE11_Alloc_nodeclIRKS5_EEPSt13_Rb_tree_nodeIS5_EOT_
FN:549,550,_ZNSt8_Rb_treeIN7testing11ExpectationES1_St9_IdentityIS1_ENS1_4LessESaIS1_EE21_M_get_Node_allocatorEv
FN:549,550,_ZNSt8_Rb_treeINSt7__cxx1112basic_stringIcSt11char_traitsIcESaIcEEES5_St9_IdentityIS5_ESt4lessIS5_ESaIS5_EE21_M_get_Node_allocatorEv
FN:562,563,_ZNSt8_Rb_treeINSt7__cxx1112basic_stringIcSt11char_traitsIcESaIcEEES5_St9_IdentityIS5_ESt4lessIS5_ESaIS5_EE11_M_get_nodeEv
FN:566,567,_ZNSt8_Rb_treeIN7testing11ExpectationES1_St9_IdentityIS1_ENS1_4LessESaIS1_EE11_M_put_nodeEPSt13_Rb_tree_nodeIS1_E
FN:566,567,_ZNSt8_Rb_treeINSt7__cxx1112basic_stringIcSt11char_traitsIcESaIcEEES5_St9_IdentityIS5_ESt4lessIS5_ESaIS5_EE11_M_put_nodeEPSt13_Rb_tree_nodeIS5_E
FN:592,607,_ZNSt8_Rb_treeINSt7__cxx1112basic_stringIcSt11char_traitsIcESaIcEEES5_St9_IdentityIS5_ESt4lessIS5_ESaIS5_EE17_M_construct_nodeIJRKS5_EEEvPSt13_Rb_tree_nodeIS5_EDpOT_
FN:611,616,_ZNSt8_Rb_treeINSt7__cxx1112basic_stringIcSt11char_traitsIcESaIcEEES5_St9_IdentityIS5_ESt4lessIS5_ESaIS5_EE14_M_create_nodeIJRKS5_EEEPSt13_Rb_tree_nodeIS5_EDpOT_
FN:620,628,_ZNSt8_Rb_treeIN7testing11ExpectationES1_St9_IdentityIS1_ENS1_4LessESaIS1_EE15_M_destroy_nodeEPSt13_Rb_tree_nodeIS1_E
FN:620,628,_ZNSt8_Rb_treeINSt7__cxx1112basic_stringIcSt11char_traitsIcESaIcEEES5_St9_IdentityIS5_ESt4lessIS5_ESaIS5_EE15_M_destroy_nodeEPSt13_Rb_tree_nodeIS5_E
FN:631,635,_ZNSt8_Rb_treeIN7testing11ExpectationES1_St9_IdentityIS1_ENS1_4LessESaIS1_EE12_M_drop_nodeEPSt13_Rb_tree_nodeIS1_E
FN:631,635,_ZNSt8_Rb_treeINSt7__cxx1112basic_stringIcSt11char_traitsIcESaIcEEES5_St9_IdentityIS5_ESt4lessIS5_ESaIS5_EE12_M_drop_nodeEPSt13_Rb_tree_nodeIS5_E
FN:669,674,_ZNSt8_Rb_treeIN7testing11ExpectationES1_St9_IdentityIS1_ENS1_4LessESaIS1_EE13_Rb_tree_implIS4_Lb1EEC2Ev
FN:669,674,_ZNSt8_Rb_treeINSt7__cxx1112basic_stringIcSt11char_traitsIcESaIcEEES5_St9_IdentityIS5_ESt4lessIS5_ESaIS5_EE13_Rb_tree_implIS9_Lb1EEC2Ev
FN:736,737,_ZNKSt8_Rb_treeIN7testing11ExpectationES1_St9_IdentityIS1_ENS1_4LessESaIS1_EE9_M_mbeginEv
FN:736,737,_ZNKSt8_Rb_treeINSt7__cxx1112basic_stringIcSt11char_traitsIcESaIcEEES5_St9_IdentityIS5_ESt4lessIS5_ESaIS5_EE9_M_mbeginEv
FN:740,741,_ZNSt8_Rb_treeIN7testing11ExpectationES1_St9_IdentityIS1_ENS1_4LessESaIS1_EE8_M_beginEv
FN:740,741,_ZNSt8_Rb_treeINSt7__cxx1112basic_stringIcSt11char_traitsIcESaIcEEES5_St9_IdentityIS5_ESt4lessIS5_ESaIS5_EE8_M_beginEv
FN:744,748,_ZNKSt8_Rb_treeINSt7__cxx1112basic_stringIcSt11char_traitsIcESaIcEEES5_St9_IdentityIS5_ESt4lessIS5_ESaIS5_EE8_M_beginEv
FN:751,752,_ZNSt8_Rb_treeINSt7__cxx1112basic_stringIcSt11char_traitsIcESaIcEEES5_St9_IdentityIS5_ESt4lessIS5_ESaIS5_EE6_M_endEv
FN:755,756,_ZNKSt8_Rb_treeINSt7__cxx1112basic_stringIcSt11char_traitsIcESaIcEEES5_St9_IdentityIS5_ESt4lessIS5_ESaIS5_EE6_M_endEv
FN:759,778,_ZNSt8_Rb_treeINSt7__cxx1112basic_stringIcSt11char_traitsIcESaIcEEES5_St9_IdentityIS5_ESt4lessIS5_ESaIS5_EE6_S_keyEPKSt13_Rb_tree_nodeIS5_E
FN:781,782,_ZNSt8_Rb_treeIN7testing11ExpectationES1_St9_IdentityIS1_ENS1_4LessESaIS1_EE7_S_leftEPSt18_Rb_tree_node_base
FN:781,782,_ZNSt8_Rb_treeINSt7__cxx1112basic_stringIcSt11char_traitsIcESaIcEEES5_St9_IdentityIS5_ESt4lessIS5_ESaIS5_EE7_S_leftEPSt18_Rb_tree_node_base
FN:785,786,_ZNSt8_Rb_treeINSt7__cxx1112basic_stringIcSt11char_traitsIcESaIcEEES5_St9_IdentityIS5_ESt4lessIS5_ESaIS5_EE7_S_leftEPKSt18_Rb_tree_node_base
FN:789,790,_ZNSt8_Rb_treeIN7testing11ExpectationES1_St9_IdentityIS1_ENS1_4LessESaIS1_EE8_S_rightEPSt18_Rb_tree_node_base
FN:789,790,_ZNSt8_Rb_treeINSt7__cxx1112basic_stringIcSt11char_traitsIcESaIcEEES5_St9_IdentityIS5_ESt4lessIS5_ESaIS5_EE8_S_rightEPSt18_Rb_tree_node_base
FN:793,794,_ZNSt8_Rb_treeINSt7__cxx1112basic_stringIcSt11char_traitsIcESaIcEEES5_St9_IdentityIS5_ESt4lessIS5_ESaIS5_EE8_S_rightEPKSt18_Rb_tree_node_base
FN:797,798,_ZNSt8_Rb_treeINSt7__cxx1112basic_stringIcSt11char_traitsIcESaIcEEES5_St9_IdentityIS5_ESt4lessIS5_ESaIS5_EE6_S_keyEPKSt18_Rb_tree_node_base
FN:930,930,_ZNSt8_Rb_treeIN7testing11ExpectationES1_St9_IdentityIS1_ENS1_4LessESaIS1_EEC2Ev
FN:930,930,_ZNSt8_Rb_treeINSt7__cxx1112basic_stringIcSt11char_traitsIcESaIcEEES5_St9_IdentityIS5_ESt4lessIS5_ESaIS5_EEC2Ev
FN:985,986,_ZNSt8_Rb_treeIN7testing11ExpectationES1_St9_IdentityIS1_ENS1_4LessESaIS1_EED2Ev
FN:985,986,_ZNSt8_Rb_treeINSt7__cxx1112basic_stringIcSt11char_traitsIcESaIcEEES5_St9_IdentityIS5_ESt4lessIS5_ESaIS5_EED2Ev
FN:997,998,_ZNSt8_Rb_treeINSt7__cxx1112basic_stringIcSt11char_traitsIcESaIcEEES5_St9_IdentityIS5_ESt4lessIS5_ESaIS5_EE5beginEv
FNDA:103,_ZNKSt8_Rb_treeIN7testing11ExpectationES1_St9_IdentityIS1_ENS1_4LessESaIS1_EE5beginEv
FNDA:185,_ZNKSt8_Rb_treeIN7testing11ExpectationES1_St9_IdentityIS1_ENS1_4LessESaIS1_EE3endEv
FNDA:12,_ZNKSt8_Rb_treeINSt7__cxx1112basic_stringIcSt11char_traitsIcESaIcEEES5_St9_IdentityIS5_ESt4lessIS5_ESaIS5_EE3endEv
FNDA:17,_ZNSt20_Rb_tree_key_compareIN7testing11Expectation4LessEEC2Ev
FNDA:3,_ZNSt20_Rb_tree_key_compareISt4lessINSt7__cxx1112basic_stringIcSt11char_traitsIcESaIcEEEEEC2Ev
FNDA:28,_ZNSt15_Rb_tree_headerC2Ev
FNDA:4,_ZNSt8_Rb_treeINSt7__cxx1112basic_stringIcSt11char_traitsIcESaIcEEES5_St9_IdentityIS5_ESt4lessIS5_ESaIS5_EE10_M_insert_IRKS5_NSB_11_Alloc_nodeEEESt17_Rb_tree_iteratorIS5_EPSt18_Rb_tree_node_baseSJ_OT_RT0_
FNDA:31,_ZNSt8_Rb_treeIN7testing11ExpectationES1_St9_IdentityIS1_ENS1_4LessESaIS1_EE8_M_eraseEPSt13_Rb_tree_nodeIS1_E
FNDA:6,_ZNSt8_Rb_treeINSt7__cxx1112basic_stringIcSt11char_traitsIcESaIcEEES5_St9_IdentityIS5_ESt4lessIS5_ESaIS5_EE8_M_eraseEPSt13_Rb_tree_nodeIS5_E
FNDA:4,_ZNKSt8_Rb_treeINSt7__cxx1112basic_stringIcSt11char_traitsIcESaIcEEES5_St9_IdentityIS5_ESt4lessIS5_ESaIS5_EE14_M_lower_boundEPKSt13_Rb_tree_nodeIS5_EPKSt18_Rb_tree_node_baseRKS5_
FNDA:35,_ZNSt15_Rb_tree_header8_M_resetEv
FNDA:4,_ZNSt8_Rb_treeINSt7__cxx1112basic_stringIcSt11char_traitsIcESaIcEEES5_St9_IdentityIS5_ESt4lessIS5_ESaIS5_EE24_M_get_insert_unique_posERKS5_
FNDA:4,_ZNSt8_Rb_treeINSt7__cxx1112basic_stringIcSt11char_traitsIcESaIcEEES5_St9_IdentityIS5_ESt4lessIS5_ESaIS5_EE16_M_insert_uniqueIRKS5_EESt4pairISt17_Rb_tree_iteratorIS5_EbEOT_
FNDA:28,_ZNSt13_Rb_tree_nodeIN7testing11ExpectationEE9_M_valptrEv
FNDA:8,_ZNSt13_Rb_tree_nodeINSt7__cxx1112basic_stringIcSt11char_traitsIcESaIcEEEE9_M_valptrEv
FNDA:83,_ZNKSt13_Rb_tree_nodeIN7testing11ExpectationEE9_M_valptrEv
FNDA:16,_ZNKSt13_Rb_tree_nodeINSt7__cxx1112basic_stringIcSt11char_traitsIcESaIcEEEE9_M_valptrEv
FNDA:4,_ZNKSt8_Rb_treeINSt7__cxx1112basic_stringIcSt11char_traitsIcESaIcEEES5_St9_IdentityIS5_ESt4lessIS5_ESaIS5_EE4findERKS5_
FNDA:9,_ZNSt17_Rb_tree_iteratorINSt7__cxx1112basic_stringIcSt11char_traitsIcESaIcEEEEC2EPSt18_Rb_tree_node_base
FNDA:0,_ZNSt17_Rb_tree_iteratorINSt7__cxx1112basic_stringIcSt11char_traitsIcESaIcEEEEmmEv
FNDA:1,_ZSteqRKSt17_Rb_tree_iteratorINSt7__cxx1112basic_stringIcSt11char_traitsIcESaIcEEEES8_
FNDA:288,_ZNSt23_Rb_tree_const_iteratorIN7testing11ExpectationEEC2EPKSt18_Rb_tree_node_base
FNDA:16,_ZNSt23_Rb_tree_const_iteratorINSt7__cxx1112basic_stringIcSt11char_traitsIcESaIcEEEEC2EPKSt18_Rb_tree_node_base
FNDA:4,_ZNSt23_Rb_tree_const_iteratorINSt7__cxx1112basic_stringIcSt11char_traitsIcESaIcEEEEC2ERKSt17_Rb_tree_iteratorIS5_E
FNDA:83,_ZNKSt23_Rb_tree_const_iteratorIN7testing11ExpectationEEptEv
FNDA:82,_ZNSt23_Rb_tree_const_iteratorIN7testing11ExpectationEEppEv
FNDA:8,_ZSteqRKSt23_Rb_tree_const_iteratorINSt7__cxx1112basic_stringIcSt11char_traitsIcESaIcEEEES8_
FNDA:185,_ZStneRKSt23_Rb_tree_const_iteratorIN7testing11ExpectationEES4_
FNDA:4,_ZNSt8_Rb_treeINSt7__cxx1112basic_stringIcSt11char_traitsIcESaIcEEES5_St9_IdentityIS5_ESt4lessIS5_ESaIS5_EE11_Alloc_nodeC2ERSB_
FNDA:4,_ZNKSt8_Rb_treeINSt7__cxx1112basic_stringIcSt11char_traitsIcESaIcEEES5_St9_IdentityIS5_ESt4lessIS5_ESaIS5_EE11_Alloc_nodeclIRKS5_EEPSt13_Rb_tree_nodeIS5_EOT_
FNDA:56,_ZNSt8_Rb_treeIN7testing11ExpectationES1_St9_IdentityIS1_ENS1_4LessESaIS1_EE21_M_get_Node_allocatorEv
FNDA:16,_ZNSt8_Rb_treeINSt7__cxx1112basic_stringIcSt11char_traitsIcESaIcEEES5_St9_IdentityIS5_ESt4lessIS5_ESaIS5_EE21_M_get_Node_allocatorEv
FNDA:4,_ZNSt8_Rb_treeINSt7__cxx1112basic_stringIcSt11char_traitsIcESaIcEEES5_St9_IdentityIS5_ESt4lessIS5_ESaIS5_EE11_M_get_nodeEv
FNDA:14,_ZNSt8_Rb_treeIN7testing11ExpectationES1_St9_IdentityIS1_ENS1_4LessESaIS1_EE11_M_put_nodeEPSt13_Rb_tree_nodeIS1_E
FNDA:4,_ZNSt8_Rb_treeINSt7__cxx1112basic_stringIcSt11char_traitsIcESaIcEEES5_St9_IdentityIS5_ESt4lessIS5_ESaIS5_EE11_M_put_nodeEPSt13_Rb_tree_nodeIS5_E
FNDA:4,_ZNSt8_Rb_treeINSt7__cxx1112basic_stringIcSt11char_traitsIcESaIcEEES5_St9_IdentityIS5_ESt4lessIS5_ESaIS5_EE17_M_construct_nodeIJRKS5_EEEvPSt13_Rb_tree_nodeIS5_EDpOT_
FNDA:4,_ZNSt8_Rb_treeINSt7__cxx1112basic_stringIcSt11char_traitsIcESaIcEEES5_St9_IdentityIS5_ESt4lessIS5_ESaIS5_EE14_M_create_nodeIJRKS5_EEEPSt13_Rb_tree_nodeIS5_EDpOT_
FNDA:14,_ZNSt8_Rb_treeIN7testing11ExpectationES1_St9_IdentityIS1_ENS1_4LessESaIS1_EE15_M_destroy_nodeEPSt13_Rb_tree_nodeIS1_E
FNDA:4,_ZNSt8_Rb_treeINSt7__cxx1112basic_stringIcSt11char_traitsIcESaIcEEES5_St9_IdentityIS5_ESt4lessIS5_ESaIS5_EE15_M_destroy_nodeEPSt13_Rb_tree_nodeIS5_E
FNDA:14,_ZNSt8_Rb_treeIN7testing11ExpectationES1_St9_IdentityIS1_ENS1_4LessESaIS1_EE12_M_drop_nodeEPSt13_Rb_tree_nodeIS1_E
FNDA:4,_ZNSt8_Rb_treeINSt7__cxx1112basic_stringIcSt11char_traitsIcESaIcEEES5_St9_IdentityIS5_ESt4lessIS5_ESaIS5_EE12_M_drop_nodeEPSt13_Rb_tree_nodeIS5_E
FNDA:17,_ZNSt8_Rb_treeIN7testing11ExpectationES1_St9_IdentityIS1_ENS1_4LessESaIS1_EE13_Rb_tree_implIS4_Lb1EEC2Ev
FNDA:2,_ZNSt8_Rb_treeINSt7__cxx1112basic_stringIcSt11char_traitsIcESaIcEEES5_St9_IdentityIS5_ESt4lessIS5_ESaIS5_EE13_Rb_tree_implIS9_Lb1EEC2Ev
FNDA:31,_ZNKSt8_Rb_treeIN7testing11ExpectationES1_St9_IdentityIS1_ENS1_4LessESaIS1_EE9_M_mbeginEv
FNDA:6,_ZNKSt8_Rb_treeINSt7__cxx1112basic_stringIcSt11char_traitsIcESaIcEEES5_St9_IdentityIS5_ESt4lessIS5_ESaIS5_EE9_M_mbeginEv
FNDA:31,_ZNSt8_Rb_treeIN7testing11ExpectationES1_St9_IdentityIS1_ENS1_4LessESaIS1_EE8_M_beginEv
FNDA:6,_ZNSt8_Rb_treeINSt7__cxx1112basic_stringIcSt11char_traitsIcESaIcEEES5_St9_IdentityIS5_ESt4lessIS5_ESaIS5_EE8_M_beginEv
FNDA:4,_ZNKSt8_Rb_treeINSt7__cxx1112basic_stringIcSt11char_traitsIcESaIcEEES5_St9_IdentityIS5_ESt4lessIS5_ESaIS5_EE8_M_beginEv
FNDA:8,_ZNSt8_Rb_treeINSt7__cxx1112basic_stringIcSt11char_traitsIcESaIcEEES5_St9_IdentityIS5_ESt4lessIS5_ESaIS5_EE6_M_endEv
FNDA:4,_ZNKSt8_Rb_treeINSt7__cxx1112basic_stringIcSt11char_traitsIcESaIcEEES5_St9_IdentityIS5_ESt4lessIS5_ESaIS5_EE6_M_endEv
FNDA:16,_ZNSt8_Rb_treeINSt7__cxx1112basic_stringIcSt11char_traitsIcESaIcEEES5_St9_IdentityIS5_ESt4lessIS5_ESaIS5_EE6_S_keyEPKSt13_Rb_tree_nodeIS5_E
FNDA:14,_ZNSt8_Rb_treeIN7testing11ExpectationES1_St9_IdentityIS1_ENS1_4LessESaIS1_EE7_S_leftEPSt18_Rb_tree_node_base
FNDA:4,_ZNSt8_Rb_treeINSt7__cxx1112basic_stringIcSt11char_traitsIcESaIcEEES5_St9_IdentityIS5_ESt4lessIS5_ESaIS5_EE7_S_leftEPSt18_Rb_tree_node_base
FNDA:0,_ZNSt8_Rb_treeINSt7__cxx1112basic_stringIcSt11char_traitsIcESaIcEEES5_St9_IdentityIS5_ESt4lessIS5_ESaIS5_EE7_S_leftEPKSt18_Rb_tree_node_base
FNDA:14,_ZNSt8_Rb_treeIN7testing11ExpectationES1_St9_IdentityIS1_ENS1_4LessESaIS1_EE8_S_rightEPSt18_Rb_tree_node_base
FNDA:9,_ZNSt8_Rb_treeINSt7__cxx1112basic_stringIcSt11char_traitsIcESaIcEEES5_St9_IdentityIS5_ESt4lessIS5_ESaIS5_EE8_S_rightEPSt18_Rb_tree_node_base
FNDA:5,_ZNSt8_Rb_treeINSt7__cxx1112basic_stringIcSt11char_traitsIcESaIcEEES5_St9_IdentityIS5_ESt4lessIS5_ESaIS5_EE8_S_rightEPKSt18_Rb_tree_node_base
FNDA:6,_ZNSt8_Rb_treeINSt7__cxx1112basic_stringIcSt11char_traitsIcESaIcEEES5_St9_IdentityIS5_ESt4lessIS5_ESaIS5_EE6_S_keyEPKSt18_Rb_tree_node_base
FNDA:17,_ZNSt8_Rb_treeIN7testing11ExpectationES1_St9_IdentityIS1_ENS1_4LessESaIS1_EEC2Ev
FNDA:2,_ZNSt8_Rb_treeINSt7__cxx1112basic_stringIcSt11char_traitsIcESaIcEEES5_St9_IdentityIS5_ESt4lessIS5_ESaIS5_EEC2Ev
FNDA:17,_ZNSt8_Rb_treeIN7testing11ExpectationES1_St9_IdentityIS1_ENS1_4LessESaIS1_EED2Ev
FNDA:2,_ZNSt8_Rb_treeINSt7__cxx1112basic_stringIcSt11char_traitsIcESaIcEEES5_St9_IdentityIS5_ESt4lessIS5_ESaIS5_EED2Ev
FNDA:1,_ZNSt8_Rb_treeINSt7__cxx1112basic_stringIcSt11char_traitsIcESaIcEEES5_St9_IdentityIS5_ESt4lessIS5_ESaIS5_EE5beginEv
FNF:63
FNH:61
DA:146,20
DA:150,20
DA:173,28
DA:174,28
DA:175,28
DA:176,28
DA:177,28
DA:206,35
DA:208,35
DA:209,35
DA:210,35
DA:211,35
DA:212,35
DA:234,36
DA:235,36
DA:238,99
DA:239,99
DA:273,9
DA:274,9
DA:300,0
DA:302,0
DA:303,0
DA:315,1
DA:316,1
DA:347,304
DA:348,304
DA:350,4
DA:351,4
DA:362,83
DA:363,83
DA:366,82
DA:368,82
DA:369,82
DA:396,8
DA:397,8
DA:401,185
DA:402,185
DA:525,4
DA:526,4
DA:530,4
DA:531,4
DA:549,72
DA:550,72
DA:562,4
DA:563,8
DA:566,18
DA:567,18
DA:592,4
DA:596,4
DA:597,4
DA:601,0
DA:603,0
DA:604,0
DA:605,0
DA:607,4
DA:611,4
DA:613,4
DA:614,4
DA:615,4
DA:620,18
DA:625,18
DA:626,18
DA:628,18
DA:631,18
DA:633,18
DA:634,18
DA:635,18
DA:669,19
DA:673,19
DA:674,19
DA:736,37
DA:737,37
DA:740,37
DA:741,37
DA:744,4
DA:747,4
DA:751,8
DA:752,8
DA:755,4
DA:756,4
DA:759,16
DA:777,16
DA:781,18
DA:782,18
DA:785,0
DA:786,0
DA:789,23
DA:790,23
DA:793,5
DA:794,5
DA:797,6
DA:798,6
DA:930,19
DA:985,19
DA:986,19
DA:997,1
DA:998,1
DA:1001,103
DA:1002,103
DA:1009,197
DA:1010,197
DA:1818,4
DA:1827,4
DA:1828,8
DA:1831,4
DA:1833,4
DA:1834,4
DA:1835,4
DA:1836,4
DA:1930,37
DA:1934,55
DA:1936,18
DA:1937,18
DA:1938,18
DA:1939,18
DA:1941,37
DA:1963,4
DA:1967,9
DA:1968,5
DA:1969,0
DA:1971,5
DA:1972,4
DA:2108,4
DA:2112,4
DA:2113,4
DA:2114,4
DA:2115,9
DA:2117,5
DA:2118,5
DA:2119,5
DA:2121,4
DA:2122,4
DA:2124,1
DA:2125,1
DA:2127,0
DA:2129,3
DA:2130,3
DA:2131,0
DA:2162,4
DA:2171,4
DA:2173,4
DA:2175,4
DA:2176,4
DA:2178,4
DA:2181,0
DA:2542,4
DA:2545,4
DA:2546,8
DA:2547,0
DA:2548,8
LF:150
LH:136
end_of_record
TN:
SF:/usr/include/c++/13/bits/stl_uninitialized.h
FN:1069,1079,_ZSt19__relocate_object_aIN7testing8internal26ParameterizedTestSuiteInfoI18AccountBalanceTestE17InstantiationInfoES5_SaIS5_EEvPT_PT0_RT1_
FN:1069,1079,_ZSt19__relocate_object_aISt10shared_ptrIN7testing8internal15ExpectationBaseEES4_SaIS4_EEvPT_PT0_RT1_
FN:1069,1079,_ZSt19__relocate_object_aISt10shared_ptrIN7testing8internal26ParameterizedTestSuiteInfoI18AccountBalanceTestE8TestInfoEES7_SaIS7_EEvPT_PT0_RT1_
FN:1091,1108,_ZSt14__relocate_a_1IPN7testing8internal26ParameterizedTestSuiteInfoI18AccountBalanceTestE17InstantiationInfoES6_SaIS5_EET0_T_S9_S8_RT1_
FN:1091,1108,_ZSt14__relocate_a_1IPSt10shared_ptrIN7testing8internal15ExpectationBaseEES5_SaIS4_EET0_T_S8_S7_RT1_
FN:1091,1108,_ZSt14__relocate_a_1IPSt10shared_ptrIN7testing8internal26ParameterizedTestSuiteInfoI18AccountBalanceTestE8TestInfoEES8_SaIS7_EET0_T_SB_SA_RT1_
FN:1114,1134,_ZSt14__relocate_a_1IPKvS1_ENSt9enable_ifIXsrSt24__is_bitwise_relocatableIT_vE5valueEPS4_E4typeES6_S6_S6_RSaIT0_E
FN:1114,1134,_ZSt14__relocate_a_1IPN7testing8internal30ParameterizedTestSuiteInfoBaseES3_ENSt9enable_ifIXsrSt24__is_bitwise_relocatableIT_vE5valueEPS6_E4typeES8_S8_S8_RSaIT0_E
FN:113,128,_ZSt16__do_uninit_copyISt13move_iteratorIPN7testing8internal26ParameterizedTestSuiteInfoI18AccountBalanceTestE17InstantiationInfoEES7_ET0_T_SA_S9_
FN:113,128,_ZSt16__do_uninit_copyISt13move_iteratorIPSt10shared_ptrIN7testing8internal15ExpectationBaseEEES6_ET0_T_S9_S8_
FN:113,128,_ZSt16__do_uninit_copyISt13move_iteratorIPSt10shared_ptrIN7testing8internal26ParameterizedTestSuiteInfoI18AccountBalanceTestE8TestInfoEEES9_ET0_T_SC_SB_
FN:1141,1150,_ZSt12__relocate_aIPN7testing8internal26ParameterizedTestSuiteInfoI18AccountBalanceTestE17InstantiationInfoES6_SaIS5_EET0_T_S9_S8_RT1_
FN:1141,1150,_ZSt12__relocate_aIPPKvS2_SaIS1_EET0_T_S5_S4_RT1_
FN:1141,1150,_ZSt12__relocate_aIPPN7testing8internal30ParameterizedTestSuiteInfoBaseES4_SaIS3_EET0_T_S7_S6_RT1_
FN:1141,1150,_ZSt12__relocate_aIPSt10shared_ptrIN7testing8internal15ExpectationBaseEES5_SaIS4_EET0_T_S8_S7_RT1_
FN:1141,1150,_ZSt12__relocate_aIPSt10shared_ptrIN7testing8internal26ParameterizedTestSuiteInfoI18AccountBalanceTestE8TestInfoEES8_SaIS7_EET0_T_SB_SA_RT1_
FN:135,137,_ZNSt20__uninitialized_copyILb0EE13__uninit_copyISt13move_iteratorIPN7testing8internal26ParameterizedTestSuiteInfoI18AccountBalanceTestE17InstantiationInfoEES9_EET0_T_SC_SB_
FN:135,137,_ZNSt20__uninitialized_copyILb0EE13__uninit_copyISt13move_iteratorIPSt10shared_ptrIN7testing8internal15ExpectationBaseEEES8_EET0_T_SB_SA_
FN:135,137,_ZNSt20__uninitialized_copyILb0EE13__uninit_copyISt13move_iteratorIPSt10shared_ptrIN7testing8internal26ParameterizedTestSuiteInfoI18AccountBalanceTestE8TestInfoEEESB_EET0_T_SE_SD_
FN:145,147,_ZNSt20__uninitialized_copyILb1EE13__uninit_copyIN9__gnu_cxx17__normal_iteratorIPKiSt6vectorIiSaIiEEEEPiEET0_T_SC_SB_
FN:145,147,_ZNSt20__uninitialized_copyILb1EE13__uninit_copyIPKiPiEET0_T_S6_S5_
FN:145,147,_ZNSt20__uninitialized_copyILb1EE13__uninit_copyISt13move_iteratorIPPKvES5_EET0_T_S8_S7_
FN:145,147,_ZNSt20__uninitialized_copyILb1EE13__uninit_copyISt13move_iteratorIPPN7testing8internal30ParameterizedTestSuiteInfoBaseEES7_EET0_T_SA_S9_
FN:163,186,_ZSt18uninitialized_copyIN9__gnu_cxx17__normal_iteratorIPKiSt6vectorIiSaIiEEEEPiET0_T_SA_S9_
FN:163,186,_ZSt18uninitialized_copyIPKiPiET0_T_S4_S3_
FN:163,186,_ZSt18uninitialized_copyISt13move_iteratorIPN7testing8internal26ParameterizedTestSuiteInfoI18AccountBalanceTestE17InstantiationInfoEES7_ET0_T_SA_S9_
FN:163,186,_ZSt18uninitialized_copyISt13move_iteratorIPPKvES3_ET0_T_S6_S5_
FN:163,186,_ZSt18uninitialized_copyISt13move_iteratorIPPN7testing8internal30ParameterizedTestSuiteInfoBaseEES5_ET0_T_S8_S7_
FN:163,186,_ZSt18uninitialized_copyISt13move_iteratorIPSt10shared_ptrIN7testing8internal15ExpectationBaseEEES6_ET0_T_S9_S8_
FN:163,186,_ZSt18uninitialized_copyISt13move_iteratorIPSt10shared_ptrIN7testing8internal26ParameterizedTestSuiteInfoI18AccountBalanceTestE8TestInfoEEES9_ET0_T_SC_SB_
FN:366,374,_ZSt22__uninitialized_copy_aIN9__gnu_cxx17__normal_iteratorIPKiSt6vectorIiSaIiEEEEPiiET0_T_SA_S9_RSaIT1_E
FN:366,374,_ZSt22__uninitialized_copy_aIPKiPiiET0_T_S4_S3_RSaIT1_E
FN:366,374,_ZSt22__uninitialized_copy_aISt13move_iteratorIPN7testing8internal26ParameterizedTestSuiteInfoI18AccountBalanceTestE17InstantiationInfoEES7_S6_ET0_T_SA_S9_RSaIT1_E
FN:366,374,_ZSt22__uninitialized_copy_aISt13move_iteratorIPPKvES3_S2_ET0_T_S6_S5_RSaIT1_E
FN:366,374,_ZSt22__uninitialized_copy_aISt13move_iteratorIPPN7testing8internal30ParameterizedTestSuiteInfoBaseEES5_S4_ET0_T_S8_S7_RSaIT1_E
FN:366,374,_ZSt22__uninitialized_copy_aISt13move_iteratorIPSt10shared_ptrIN7testing8internal15ExpectationBaseEEES6_S5_ET0_T_S9_S8_RSaIT1_E
FN:366,374,_ZSt22__uninitialized_copy_aISt13move_iteratorIPSt10shared_ptrIN7testing8internal26ParameterizedTestSuiteInfoI18AccountBalanceTestE8TestInfoEEES9_S8_ET0_T_SC_SB_RSaIT1_E
FN:393,401,_ZSt34__uninitialized_move_if_noexcept_aIPN7testing8internal26ParameterizedTestSuiteInfoI18AccountBalanceTestE17InstantiationInfoES6_SaIS5_EET0_T_S9_S8_RT1_
FN:393,401,_ZSt34__uninitialized_move_if_noexcept_aIPPKvS2_SaIS1_EET0_T_S5_S4_RT1_
FN:393,401,_ZSt34__uninitialized_move_if_noexcept_aIPPN7testing8internal30ParameterizedTestSuiteInfoBaseES4_SaIS3_EET0_T_S7_S6_RT1_
FN:393,401,_ZSt34__uninitialized_move_if_noexcept_aIPSt10shared_ptrIN7testing8internal15ExpectationBaseEES5_SaIS4_EET0_T_S8_S7_RT1_
FN:393,401,_ZSt34__uninitialized_move_if_noexcept_aIPSt10shared_ptrIN7testing8internal26ParameterizedTestSuiteInfoI18AccountBalanceTestE8TestInfoEES8_SaIS7_EET0_T_SB_SA_RT1_
FNDA:0,_ZSt19__relocate_object_aIN7testing8internal26ParameterizedTestSuiteInfoI18AccountBalanceTestE17InstantiationInfoES5_SaIS5_EEvPT_PT0_RT1_
FNDA:1,_ZSt19__relocate_object_aISt10shared_ptrIN7testing8internal15ExpectationBaseEES4_SaIS4_EEvPT_PT0_RT1_
FNDA:0,_ZSt19__relocate_object_aISt10shared_ptrIN7testing8internal26ParameterizedTestSuiteInfoI18AccountBalanceTestE8TestInfoEES7_SaIS7_EEvPT_PT0_RT1_
FNDA:2,_ZSt14__relocate_a_1IPN7testing8internal26ParameterizedTestSuiteInfoI18AccountBalanceTestE17InstantiationInfoES6_SaIS5_EET0_T_S9_S8_RT1_
FNDA:34,_ZSt14__relocate_a_1IPSt10shared_ptrIN7testing8internal15ExpectationBaseEES5_SaIS4_EET0_T_S8_S7_RT1_
FNDA:2,_ZSt14__relocate_a_1IPSt10shared_ptrIN7testing8internal26ParameterizedTestSuiteInfoI18AccountBalanceTestE8TestInfoEES8_SaIS7_EET0_T_SB_SA_RT1_
FNDA:4,_ZSt14__relocate_a_1IPKvS1_ENSt9enable_ifIXsrSt24__is_bitwise_relocatableIT_vE5valueEPS4_E4typeES6_S6_S6_RSaIT0_E
FNDA:2,_ZSt14__relocate_a_1IPN7testing8internal30ParameterizedTestSuiteInfoBaseES3_ENSt9enable_ifIXsrSt24__is_bitwise_relocatableIT_vE5valueEPS6_E4typeES8_S8_S8_RSaIT0_E
FNDA:0,_ZSt16__do_uninit_copyISt13move_iteratorIPN7testing8internal26ParameterizedTestSuiteInfoI18AccountBalanceTestE17InstantiationInfoEES7_ET0_T_SA_S9_
FNDA:0,_ZSt16__do_uninit_copyISt13move_iteratorIPSt10shared_ptrIN7testing8internal15ExpectationBaseEEES6_ET0_T_S9_S8_
FNDA:0,_ZSt16__do_uninit_copyISt13move_iteratorIPSt10shared_ptrIN7testing8internal26ParameterizedTestSuiteInfoI18AccountBalanceTestE8TestInfoEEES9_ET0_T_SC_SB_
FNDA:2,_ZSt12__relocate_aIPN7testing8internal26ParameterizedTestSuiteInfoI18AccountBalanceTestE17InstantiationInfoES6_SaIS5_EET0_T_S9_S8_RT1_
FNDA:4,_ZSt12__relocate_aIPPKvS2_SaIS1_EET0_T_S5_S4_RT1_
FNDA:2,_ZSt12__relocate_aIPPN7testing8internal30ParameterizedTestSuiteInfoBaseES4_SaIS3_EET0_T_S7_S6_RT1_
FNDA:34,_ZSt12__relocate_aIPSt10shared_ptrIN7testing8internal15ExpectationBaseEES5_SaIS4_EET0_T_S8_S7_RT1_
FNDA:2,_ZSt12__relocate_aIPSt10shared_ptrIN7testing8internal26ParameterizedTestSuiteInfoI18AccountBalanceTestE8TestInfoEES8_SaIS7_EET0_T_SB_SA_RT1_
FNDA:0,_ZNSt20__uninitialized_copyILb0EE13__uninit_copyISt13move_iteratorIPN7testing8internal26ParameterizedTestSuiteInfoI18AccountBalanceTestE17InstantiationInfoEES9_EET0_T_SC_SB_
FNDA:0,_ZNSt20__uninitialized_copyILb0EE13__uninit_copyISt13move_iteratorIPSt10shared_ptrIN7testing8internal15ExpectationBaseEEES8_EET0_T_SB_SA_
FNDA:0,_ZNSt20__uninitialized_copyILb0EE13__uninit_copyISt13move_iteratorIPSt10shared_ptrIN7testing8internal26ParameterizedTestSuiteInfoI18AccountBalanceTestE8TestInfoEEESB_EET0_T_SE_SD_
FNDA:1,_ZNSt20__uninitialized_copyILb1EE13__uninit_copyIN9__gnu_cxx17__normal_iteratorIPKiSt6vectorIiSaIiEEEEPiEET0_T_SC_SB_
FNDA:1,_ZNSt20__uninitialized_copyILb1EE13__uninit_copyIPKiPiEET0_T_S6_S5_
FNDA:0,_ZNSt20__uninitialized_copyILb1EE13__uninit_copyISt13move_iteratorIPPKvES5_EET0_T_S8_S7_
FNDA:0,_ZNSt20__uninitialized_copyILb1EE13__uninit_copyISt13move_iteratorIPPN7testing8internal30ParameterizedTestSuiteInfoBaseEES7_EET0_T_SA_S9_
FNDA:1,_ZSt18uninitialized_copyIN9__gnu_cxx17__normal_iteratorIPKiSt6vectorIiSaIiEEEEPiET0_T_SA_S9_
FNDA:1,_ZSt18uninitialized_copyIPKiPiET0_T_S4_S3_
FNDA:0,_ZSt18uninitialized_copyISt13move_iteratorIPN7testing8internal26ParameterizedTestSuiteInfoI18AccountBalanceTestE17InstantiationInfoEES7_ET0_T_SA_S9_
FNDA:0,_ZSt18uninitialized_copyISt13move_iteratorIPPKvES3_ET0_T_S6_S5_
FNDA:0,_ZSt18uninitialized_copyISt13move_iteratorIPPN7testing8internal30ParameterizedTestSuiteInfoBaseEES5_ET0_T_S8_S7_
FNDA:0,_ZSt18uninitialized_copyISt13move_iteratorIPSt10shared_ptrIN7testing8internal15ExpectationBaseEEES6_ET0_T_S9_S8_
FNDA:0,_ZSt18uninitialized_copyISt13move_iteratorIPSt10shared_ptrIN7testing8internal26ParameterizedTestSuiteInfoI18AccountBalanceTestE8TestInfoEEES9_ET0_T_SC_SB_
FNDA:1,_ZSt22__uninitialized_copy_aIN9__gnu_cxx17__normal_iteratorIPKiSt6vectorIiSaIiEEEEPiiET0_T_SA_S9_RSaIT1_E
FNDA:1,_ZSt22__uninitialized_copy_aIPKiPiiET0_T_S4_S3_RSaIT1_E
FNDA:0,_ZSt22__uninitialized_copy_aISt13move_iteratorIPN7testing8internal26ParameterizedTestSuiteInfoI18AccountBalanceTestE17InstantiationInfoEES7_S6_ET0_T_SA_S9_RSaIT1_E
FNDA:0,_ZSt22__uninitialized_copy_aISt13move_iteratorIPPKvES3_S2_ET0_T_S6_S5_RSaIT1_E
FNDA:0,_ZSt22__uninitialized_copy_aISt13move_iteratorIPPN7testing8internal30ParameterizedTestSuiteInfoBaseEES5_S4_ET0_T_S8_S7_RSaIT1_E
FNDA:0,_ZSt22__uninitialized_copy_aISt13move_iteratorIPSt10shared_ptrIN7testing8internal15ExpectationBaseEEES6_S5_ET0_T_S9_S8_RSaIT1_E
FNDA:0,_ZSt22__uninitialized_copy_aISt13move_iteratorIPSt10shared_ptrIN7testing8internal26ParameterizedTestSuiteInfoI18AccountBalanceTestE8TestInfoEEES9_S8_ET0_T_SC_SB_RSaIT1_E
FNDA:0,_ZSt34__uninitialized_move_if_noexcept_aIPN7testing8internal26ParameterizedTestSuiteInfoI18AccountBalanceTestE17InstantiationInfoES6_SaIS5_EET0_T_S9_S8_RT1_
FNDA:0,_ZSt34__uninitialized_move_if_noexcept_aIPPKvS2_SaIS1_EET0_T_S5_S4_RT1_
FNDA:0,_ZSt34__uninitialized_move_if_noexcept_aIPPN7testing8internal30ParameterizedTestSuiteInfoBaseES4_SaIS3_EET0_T_S7_S6_RT1_
FNDA:0,_ZSt34__uninitialized_move_if_noexcept_aIPSt10shared_ptrIN7testing8internal15ExpectationBaseEES5_SaIS4_EET0_T_S8_S7_RT1_
FNDA:0,_ZSt34__uninitialized_move_if_noexcept_aIPSt10shared_ptrIN7testing8internal26ParameterizedTestSuiteInfoI18AccountBalanceTestE8TestInfoEES8_SaIS7_EET0_T_SB_SA_RT1_
FNF:42
FNH:17
DA:113,0
DA:116,0
DA:119,0
DA:120,0
DA:121,0
DA:123,0
DA:125,0
DA:126,0
DA:135,0
DA:137,0
DA:145,2
DA:147,2
DA:163,2
DA:174,2
DA:181,2
DA:185,2
DA:366,2
DA:373,2
DA:393,0
DA:399,0
DA:400,0
DA:1069,1
DA:1077,1
DA:1078,1
DA:1079,1
DA:1091,38
DA:1103,38
DA:1104,39
DA:1105,1
DA:1107,38
DA:1114,6
DA:1118,6
DA:1119,6
DA:1131,0
DA:1133,6
DA:1141,44
DA:1147,44
DA:1149,44
LF:38
LH:24
end_of_record
TN:
SF:/usr/include/c++/13/bits/stl_vector.h
FN:1088,1089,_ZNKSt6vectorISt10shared_ptrIN7testing8internal26ParameterizedTestSuiteInfoI18AccountBalanceTestE8TestInfoEESaIS7_EE5emptyEv
FN:113,118,_ZNSt12_Vector_baseIPKvSaIS1_EE17_Vector_impl_data12_M_copy_dataERKS4_
FN:1145,1149,_ZNKSt6vectorIPKvSaIS1_EEixEm
FN:1145,1149,_ZNKSt6vectorISt10shared_ptrIN7testing8internal15ExpectationBaseEESaIS4_EEixEm
FN:122,130,_ZNSt12_Vector_baseIPKvSaIS1_EE17_Vector_impl_data12_M_swap_dataERS4_
FN:1281,1293,_ZNSt6vectorISt10shared_ptrIN7testing8internal15ExpectationBaseEESaIS4_EE9push_backERKS4_
FN:1298,1299,_ZNSt6vectorIN7testing8internal26ParameterizedTestSuiteInfoI18AccountBalanceTestE17InstantiationInfoESaIS5_EE9push_backEOS5_
FN:1298,1299,_ZNSt6vectorIPKvSaIS1_EE9push_backEOS1_
FN:1298,1299,_ZNSt6vectorIPN7testing8internal30ParameterizedTestSuiteInfoBaseESaIS3_EE9push_backEOS3_
FN:1298,1299,_ZNSt6vectorISt10shared_ptrIN7testing8internal26ParameterizedTestSuiteInfoI18AccountBalanceTestE8TestInfoEESaIS7_EE9push_backEOS7_
FN:137,143,_ZNSt12_Vector_baseIN7testing8internal26ParameterizedTestSuiteInfoI18AccountBalanceTestE17InstantiationInfoESaIS5_EE12_Vector_implC2Ev
FN:137,143,_ZNSt12_Vector_baseIPKvSaIS1_EE12_Vector_implC2Ev
FN:137,143,_ZNSt12_Vector_baseISt10shared_ptrIN7testing8internal26ParameterizedTestSuiteInfoI18AccountBalanceTestE8TestInfoEESaIS7_EE12_Vector_implC2Ev
FN:146,148,_ZNSt12_Vector_baseIiSaIiEE12_Vector_implC2ERKS0_
FN:1586,1595,_ZNSt6vectorIPKvSaIS1_EE4swapERS3_
FN:1687,1698,_ZNSt6vectorIiSaIiEE19_M_range_initializeIN9__gnu_cxx17__normal_iteratorIPKiS1_EEEEvT_S8_St20forward_iterator_tag
FN:1687,1698,_ZNSt6vectorIiSaIiEE19_M_range_initializeIPKiEEvT_S5_St20forward_iterator_tag
FN:1896,1903,_ZNKSt6vectorIN7testing8internal26ParameterizedTestSuiteInfoI18AccountBalanceTestE17InstantiationInfoESaIS5_EE12_M_check_lenEmPKc
FN:1896,1903,_ZNKSt6vectorIPKvSaIS1_EE12_M_check_lenEmPKc
FN:1896,1903,_ZNKSt6vectorIPN7testing8internal30ParameterizedTestSuiteInfoBaseESaIS3_EE12_M_check_lenEmPKc
FN:1896,1903,_ZNKSt6vectorISt10shared_ptrIN7testing8internal15ExpectationBaseEESaIS4_EE12_M_check_lenEmPKc
FN:1896,1903,_ZNKSt6vectorISt10shared_ptrIN7testing8internal26ParameterizedTestSuiteInfoI18AccountBalanceTestE8TestInfoEESaIS7_EE12_M_check_lenEmPKc
FN:1907,1913,_ZNSt6vectorIiSaIiEE17_S_check_init_lenEmRKS0_
FN:1916,1925,_ZNSt6vectorIN7testing8internal26ParameterizedTestSuiteInfoI18AccountBalanceTestE17InstantiationInfoESaIS5_EE11_S_max_sizeERKS6_
FN:1916,1925,_ZNSt6vectorIPKvSaIS1_EE11_S_max_sizeERKS2_
FN:1916,1925,_ZNSt6vectorIPN7testing8internal30ParameterizedTestSuiteInfoBaseESaIS3_EE11_S_max_sizeERKS4_
FN:1916,1925,_ZNSt6vectorISt10shared_ptrIN7testing8internal15ExpectationBaseEESaIS4_EE11_S_max_sizeERKS5_
FN:1916,1925,_ZNSt6vectorISt10shared_ptrIN7testing8internal26ParameterizedTestSuiteInfoI18AccountBalanceTestE8TestInfoEESaIS7_EE11_S_max_sizeERKS8_
FN:1916,1925,_ZNSt6vectorIiSaIiEE11_S_max_sizeERKS0_
FN:301,302,_ZNSt12_Vector_baseIN7testing8internal26ParameterizedTestSuiteInfoI18AccountBalanceTestE17InstantiationInfoESaIS5_EE19_M_get_Tp_allocatorEv
FN:301,302,_ZNSt12_Vector_baseIPKvSaIS1_EE19_M_get_Tp_allocatorEv
FN:301,302,_ZNSt12_Vector_baseIPN7testing8internal30ParameterizedTestSuiteInfoBaseESaIS3_EE19_M_get_Tp_allocatorEv
FN:301,302,_ZNSt12_Vector_baseISt10shared_ptrIN7testing8internal15ExpectationBaseEESaIS4_EE19_M_get_Tp_allocatorEv
FN:301,302,_ZNSt12_Vector_baseISt10shared_ptrIN7testing8internal26ParameterizedTestSuiteInfoI18AccountBalanceTestE8TestInfoEESaIS7_EE19_M_get_Tp_allocatorEv
FN:301,302,_ZNSt12_Vector_baseIiSaIiEE19_M_get_Tp_allocatorEv
FN:306,307,_ZNKSt12_Vector_baseIN7testing8internal26ParameterizedTestSuiteInfoI18AccountBalanceTestE17InstantiationInfoESaIS5_EE19_M_get_Tp_allocatorEv
FN:306,307,_ZNKSt12_Vector_baseIPKvSaIS1_EE19_M_get_Tp_allocatorEv
FN:306,307,_ZNKSt12_Vector_baseIPN7testing8internal30ParameterizedTestSuiteInfoBaseESaIS3_EE19_M_get_Tp_allocatorEv
FN:306,307,_ZNKSt12_Vector_baseISt10shared_ptrIN7testing8internal15ExpectationBaseEESaIS4_EE19_M_get_Tp_allocatorEv
FN:306,307,_ZNKSt12_Vector_baseISt10shared_ptrIN7testing8internal26ParameterizedTestSuiteInfoI18AccountBalanceTestE8TestInfoEESaIS7_EE19_M_get_Tp_allocatorEv
FN:315,315,_ZNSt12_Vector_baseIN7testing8internal26ParameterizedTestSuiteInfoI18AccountBalanceTestE17InstantiationInfoESaIS5_EEC2Ev
FN:315,315,_ZNSt12_Vector_baseIPKvSaIS1_EEC2Ev
FN:315,315,_ZNSt12_Vector_baseISt10shared_ptrIN7testing8internal26ParameterizedTestSuiteInfoI18AccountBalanceTestE8TestInfoEESaIS7_EEC2Ev
FN:321,322,_ZNSt12_Vector_baseIiSaIiEEC2ERKS0_
FN:367,371,_ZNSt12_Vector_baseIN7testing8internal26ParameterizedTestSuiteInfoI18AccountBalanceTestE17InstantiationInfoESaIS5_EED2Ev
FN:367,371,_ZNSt12_Vector_baseIPKvSaIS1_EED2Ev
FN:367,371,_ZNSt12_Vector_baseISt10shared_ptrIN7testing8internal26ParameterizedTestSuiteInfoI18AccountBalanceTestE8TestInfoEESaIS7_EED2Ev
FN:367,371,_ZNSt12_Vector_baseIiSaIiEED2Ev
FN:378,382,_ZNSt12_Vector_baseIN7testing8internal26ParameterizedTestSuiteInfoI18AccountBalanceTestE17InstantiationInfoESaIS5_EE11_M_allocateEm
FN:378,382,_ZNSt12_Vector_baseIPKvSaIS1_EE11_M_allocateEm
FN:378,382,_ZNSt12_Vector_baseIPN7testing8internal30ParameterizedTestSuiteInfoBaseESaIS3_EE11_M_allocateEm
FN:378,382,_ZNSt12_Vector_baseISt10shared_ptrIN7testing8internal15ExpectationBaseEESaIS4_EE11_M_allocateEm
FN:378,382,_ZNSt12_Vector_baseISt10shared_ptrIN7testing8internal26ParameterizedTestSuiteInfoI18AccountBalanceTestE8TestInfoEESaIS7_EE11_M_allocateEm
FN:378,382,_ZNSt12_Vector_baseIiSaIiEE11_M_allocateEm
FN:386,391,_ZNSt12_Vector_baseIN7testing8internal26ParameterizedTestSuiteInfoI18AccountBalanceTestE17InstantiationInfoESaIS5_EE13_M_deallocateEPS5_m
FN:386,391,_ZNSt12_Vector_baseIPKvSaIS1_EE13_M_deallocateEPS1_m
FN:386,391,_ZNSt12_Vector_baseIPN7testing8internal30ParameterizedTestSuiteInfoBaseESaIS3_EE13_M_deallocateEPS3_m
FN:386,391,_ZNSt12_Vector_baseISt10shared_ptrIN7testing8internal15ExpectationBaseEESaIS4_EE13_M_deallocateEPS4_m
FN:386,391,_ZNSt12_Vector_baseISt10shared_ptrIN7testing8internal26ParameterizedTestSuiteInfoI18AccountBalanceTestE8TestInfoEESaIS7_EE13_M_deallocateEPS7_m
FN:386,391,_ZNSt12_Vector_baseIiSaIiEE13_M_deallocateEPim
FN:470,476,_ZNSt6vectorIN7testing8internal26ParameterizedTestSuiteInfoI18AccountBalanceTestE17InstantiationInfoESaIS5_EE19_S_nothrow_relocateESt17integral_constantIbLb1EE
FN:470,476,_ZNSt6vectorIPKvSaIS1_EE19_S_nothrow_relocateESt17integral_constantIbLb1EE
FN:470,476,_ZNSt6vectorIPN7testing8internal30ParameterizedTestSuiteInfoBaseESaIS3_EE19_S_nothrow_relocateESt17integral_constantIbLb1EE
FN:470,476,_ZNSt6vectorISt10shared_ptrIN7testing8internal15ExpectationBaseEESaIS4_EE19_S_nothrow_relocateESt17integral_constantIbLb1EE
FN:470,476,_ZNSt6vectorISt10shared_ptrIN7testing8internal26ParameterizedTestSuiteInfoI18AccountBalanceTestE8TestInfoEESaIS7_EE19_S_nothrow_relocateESt17integral_constantIbLb1EE
FN:483,489,_ZNSt6vectorIN7testing8internal26ParameterizedTestSuiteInfoI18AccountBalanceTestE17InstantiationInfoESaIS5_EE15_S_use_relocateEv
FN:483,489,_ZNSt6vectorIPKvSaIS1_EE15_S_use_relocateEv
FN:483,489,_ZNSt6vectorIPN7testing8internal30ParameterizedTestSuiteInfoBaseESaIS3_EE15_S_use_relocateEv
FN:483,489,_ZNSt6vectorISt10shared_ptrIN7testing8internal15ExpectationBaseEESaIS4_EE15_S_use_relocateEv
FN:483,489,_ZNSt6vectorISt10shared_ptrIN7testing8internal26ParameterizedTestSuiteInfoI18AccountBalanceTestE8TestInfoEESaIS7_EE15_S_use_relocateEv
FN:492,496,_ZNSt6vectorIN7testing8internal26ParameterizedTestSuiteInfoI18AccountBalanceTestE17InstantiationInfoESaIS5_EE14_S_do_relocateEPS5_S8_S8_RS6_St17integral_constantIbLb1EE
FN:492,496,_ZNSt6vectorIPKvSaIS1_EE14_S_do_relocateEPS1_S4_S4_RS2_St17integral_constantIbLb1EE
FN:492,496,_ZNSt6vectorIPN7testing8internal30ParameterizedTestSuiteInfoBaseESaIS3_EE14_S_do_relocateEPS3_S6_S6_RS4_St17integral_constantIbLb1EE
FN:492,496,_ZNSt6vectorISt10shared_ptrIN7testing8internal15ExpectationBaseEESaIS4_EE14_S_do_relocateEPS4_S7_S7_RS5_St17integral_constantIbLb1EE
FN:492,496,_ZNSt6vectorISt10shared_ptrIN7testing8internal26ParameterizedTestSuiteInfoI18AccountBalanceTestE8TestInfoEESaIS7_EE14_S_do_relocateEPS7_SA_SA_RS8_St17integral_constantIbLb1EE
FN:504,514,_ZNSt6vectorIN7testing8internal26ParameterizedTestSuiteInfoI18AccountBalanceTestE17InstantiationInfoESaIS5_EE11_S_relocateEPS5_S8_S8_RS6_
FN:504,514,_ZNSt6vectorIPKvSaIS1_EE11_S_relocateEPS1_S4_S4_RS2_
FN:504,514,_ZNSt6vectorIPN7testing8internal30ParameterizedTestSuiteInfoBaseESaIS3_EE11_S_relocateEPS3_S6_S6_RS4_
FN:504,514,_ZNSt6vectorISt10shared_ptrIN7testing8internal15ExpectationBaseEESaIS4_EE11_S_relocateEPS4_S7_S7_RS5_
FN:504,514,_ZNSt6vectorISt10shared_ptrIN7testing8internal26ParameterizedTestSuiteInfoI18AccountBalanceTestE8TestInfoEESaIS7_EE11_S_relocateEPS7_SA_SA_RS8_
FN:531,531,_ZNSt6vectorIN7testing8internal26ParameterizedTestSuiteInfoI18AccountBalanceTestE17InstantiationInfoESaIS5_EEC2Ev
FN:531,531,_ZNSt6vectorIPKvSaIS1_EEC2Ev
FN:531,531,_ZNSt6vectorISt10shared_ptrIN7testing8internal26ParameterizedTestSuiteInfoI18AccountBalanceTestE8TestInfoEESaIS7_EEC2Ev
FN:678,684,_ZNSt6vectorIiSaIiEEC2ESt16initializer_listIiERKS0_
FN:707,713,_ZNSt6vectorIiSaIiEEC2IN9__gnu_cxx17__normal_iteratorIPKiS1_EEvEET_S8_RKS0_
FN:733,738,_ZNSt6vectorIN7testing8internal26ParameterizedTestSuiteInfoI18AccountBalanceTestE17InstantiationInfoESaIS5_EED2Ev
FN:733,738,_ZNSt6vectorIPKvSaIS1_EED2Ev
FN:733,738,_ZNSt6vectorISt10shared_ptrIN7testing8internal26ParameterizedTestSuiteInfoI18AccountBalanceTestE8TestInfoEESaIS7_EED2Ev
FN:733,738,_ZNSt6vectorIiSaIiEED2Ev
FN:873,874,_ZNSt6vectorIN7testing8internal26ParameterizedTestSuiteInfoI18AccountBalanceTestE17InstantiationInfoESaIS5_EE5beginEv
FN:873,874,_ZNSt6vectorIPKvSaIS1_EE5beginEv
FN:873,874,_ZNSt6vectorIPN7testing8internal30ParameterizedTestSuiteInfoBaseESaIS3_EE5beginEv
FN:873,874,_ZNSt6vectorISt10shared_ptrIN7testing8internal15ExpectationBaseEESaIS4_EE5beginEv
FN:873,874,_ZNSt6vectorISt10shared_ptrIN7testing8internal26ParameterizedTestSuiteInfoI18AccountBalanceTestE8TestInfoEESaIS7_EE5beginEv
FN:883,884,_ZNKSt6vectorIPKvSaIS1_EE5beginEv
FN:883,884,_ZNKSt6vectorISt10shared_ptrIN7testing8internal15ExpectationBaseEESaIS4_EE5beginEv
FN:883,884,_ZNKSt6vectorISt10shared_ptrIN7testing8internal26ParameterizedTestSuiteInfoI18AccountBalanceTestE8TestInfoEESaIS7_EE5beginEv
FN:883,884,_ZNKSt6vectorIiSaIiEE5beginEv
FN:893,894,_ZNSt6vectorIN7testing8internal26ParameterizedTestSuiteInfoI18AccountBalanceTestE17InstantiationInfoESaIS5_EE3endEv
FN:893,894,_ZNSt6vectorIPKvSaIS1_EE3endEv
FN:893,894,_ZNSt6vectorIPN7testing8internal30ParameterizedTestSuiteInfoBaseESaIS3_EE3endEv
FN:893,894,_ZNSt6vectorISt10shared_ptrIN7testing8internal15ExpectationBaseEESaIS4_EE3endEv
FN:893,894,_ZNSt6vectorISt10shared_ptrIN7testing8internal26ParameterizedTestSuiteInfoI18AccountBalanceTestE8TestInfoEESaIS7_EE3endEv
FN:903,904,_ZNKSt6vectorIPKvSaIS1_EE3endEv
FN:903,904,_ZNKSt6vectorISt10shared_ptrIN7testing8internal15ExpectationBaseEESaIS4_EE3endEv
FN:903,904,_ZNKSt6vectorISt10shared_ptrIN7testing8internal26ParameterizedTestSuiteInfoI18AccountBalanceTestE8TestInfoEESaIS7_EE3endEv
FN:903,904,_ZNKSt6vectorIiSaIiEE3endEv
FN:923,924,_ZNKSt6vectorIPKvSaIS1_EE6rbeginEv
FN:923,924,_ZNKSt6vectorISt10shared_ptrIN7testing8internal15ExpectationBaseEESaIS4_EE6rbeginEv
FN:943,944,_ZNKSt6vectorIPKvSaIS1_EE4rendEv
FN:943,944,_ZNKSt6vectorISt10shared_ptrIN7testing8internal15ExpectationBaseEESaIS4_EE4rendEv
FN:99,101,_ZNSt12_Vector_baseIN7testing8internal26ParameterizedTestSuiteInfoI18AccountBalanceTestE17InstantiationInfoESaIS5_EE17_Vector_impl_dataC2Ev
FN:99,101,_ZNSt12_Vector_baseIPKvSaIS1_EE17_Vector_impl_dataC2Ev
FN:99,101,_ZNSt12_Vector_baseISt10shared_ptrIN7testing8internal26ParameterizedTestSuiteInfoI18AccountBalanceTestE8TestInfoEESaIS7_EE17_Vector_impl_dataC2Ev
FN:99,101,_ZNSt12_Vector_baseIiSaIiEE17_Vector_impl_dataC2Ev
FN:992,993,_ZNKSt6vectorIN7testing8internal26ParameterizedTestSuiteInfoI18AccountBalanceTestE17InstantiationInfoESaIS5_EE4sizeEv
FN:992,993,_ZNKSt6vectorIPKvSaIS1_EE4sizeEv
FN:992,993,_ZNKSt6vectorIPN7testing8internal30ParameterizedTestSuiteInfoBaseESaIS3_EE4sizeEv
FN:992,993,_ZNKSt6vectorISt10shared_ptrIN7testing8internal15ExpectationBaseEESaIS4_EE4sizeEv
FN:992,993,_ZNKSt6vectorISt10shared_ptrIN7testing8internal26ParameterizedTestSuiteInfoI18AccountBalanceTestE8TestInfoEESaIS7_EE4sizeEv
FN:998,999,_ZNKSt6vectorIN7testing8internal26ParameterizedTestSuiteInfoI18AccountBalanceTestE17InstantiationInfoESaIS5_EE8max_sizeEv
FN:998,999,_ZNKSt6vectorIPKvSaIS1_EE8max_sizeEv
FN:998,999,_ZNKSt6vectorIPN7testing8internal30ParameterizedTestSuiteInfoBaseESaIS3_EE8max_sizeEv
FN:998,999,_ZNKSt6vectorISt10shared_ptrIN7testing8internal15ExpectationBaseEESaIS4_EE8max_sizeEv
FN:998,999,_ZNKSt6vectorISt10shared_ptrIN7testing8internal26ParameterizedTestSuiteInfoI18AccountBalanceTestE8TestInfoEESaIS7_EE8max_sizeEv
FNDA:0,_ZNKSt6vectorISt10shared_ptrIN7testing8internal26ParameterizedTestSuiteInfoI18AccountBalanceTestE8TestInfoEESaIS7_EE5emptyEv
FNDA:216,_ZNSt12_Vector_baseIPKvSaIS1_EE17_Vector_impl_data12_M_copy_dataERKS4_
FNDA:2,_ZNKSt6vectorIPKvSaIS1_EEixEm
FNDA:0,_ZNKSt6vectorISt10shared_ptrIN7testing8internal15ExpectationBaseEESaIS4_EEixEm
FNDA:72,_ZNSt12_Vector_baseIPKvSaIS1_EE17_Vector_impl_data12_M_swap_dataERS4_
FNDA:17,_ZNSt6vectorISt10shared_ptrIN7testing8internal15ExpectationBaseEESaIS4_EE9push_backERKS4_
FNDA:1,_ZNSt6vectorIN7testing8internal26ParameterizedTestSuiteInfoI18AccountBalanceTestE17InstantiationInfoESaIS5_EE9push_backEOS5_
FNDA:2,_ZNSt6vectorIPKvSaIS1_EE9push_backEOS1_
FNDA:1,_ZNSt6vectorIPN7testing8internal30ParameterizedTestSuiteInfoBaseESaIS3_EE9push_backEOS3_
FNDA:1,_ZNSt6vectorISt10shared_ptrIN7testing8internal26ParameterizedTestSuiteInfoI18AccountBalanceTestE8TestInfoEESaIS7_EE9push_backEOS7_
FNDA:1,_ZNSt12_Vector_baseIN7testing8internal26ParameterizedTestSuiteInfoI18AccountBalanceTestE17InstantiationInfoESaIS5_EE12_Vector_implC2Ev
FNDA:161,_ZNSt12_Vector_baseIPKvSaIS1_EE12_Vector_implC2Ev
FNDA:1,_ZNSt12_Vector_baseISt10shared_ptrIN7testing8internal26ParameterizedTestSuiteInfoI18AccountBalanceTestE8TestInfoEESaIS7_EE12_Vector_implC2Ev
FNDA:2,_ZNSt12_Vector_baseIiSaIiEE12_Vector_implC2ERKS0_
FNDA:72,_ZNSt6vectorIPKvSaIS1_EE4swapERS3_
FNDA:1,_ZNSt6vectorIiSaIiEE19_M_range_initializeIN9__gnu_cxx17__normal_iteratorIPKiS1_EEEEvT_S8_St20forward_iterator_tag
FNDA:1,_ZNSt6vectorIiSaIiEE19_M_range_initializeIPKiEEvT_S5_St20forward_iterator_tag
FNDA:1,_ZNKSt6vectorIN7testing8internal26ParameterizedTestSuiteInfoI18AccountBalanceTestE17InstantiationInfoESaIS5_EE12_M_check_lenEmPKc
FNDA:2,_ZNKSt6vectorIPKvSaIS1_EE12_M_check_lenEmPKc
FNDA:1,_ZNKSt6vectorIPN7testing8internal30ParameterizedTestSuiteInfoBaseESaIS3_EE12_M_check_lenEmPKc
FNDA:17,_ZNKSt6vectorISt10shared_ptrIN7testing8internal15ExpectationBaseEESaIS4_EE12_M_check_lenEmPKc
FNDA:1,_ZNKSt6vectorISt10shared_ptrIN7testing8internal26ParameterizedTestSuiteInfoI18AccountBalanceTestE8TestInfoEESaIS7_EE12_M_check_lenEmPKc
FNDA:2,_ZNSt6vectorIiSaIiEE17_S_check_init_lenEmRKS0_
FNDA:2,_ZNSt6vectorIN7testing8internal26ParameterizedTestSuiteInfoI18AccountBalanceTestE17InstantiationInfoESaIS5_EE11_S_max_sizeERKS6_
FNDA:4,_ZNSt6vectorIPKvSaIS1_EE11_S_max_sizeERKS2_
FNDA:2,_ZNSt6vectorIPN7testing8internal30ParameterizedTestSuiteInfoBaseESaIS3_EE11_S_max_sizeERKS4_
FNDA:34,_ZNSt6vectorISt10shared_ptrIN7testing8internal15ExpectationBaseEESaIS4_EE11_S_max_sizeERKS5_
FNDA:2,_ZNSt6vectorISt10shared_ptrIN7testing8internal26ParameterizedTestSuiteInfoI18AccountBalanceTestE8TestInfoEESaIS7_EE11_S_max_sizeERKS8_
FNDA:30,_ZNSt6vectorIiSaIiEE11_S_max_sizeERKS0_
FNDA:3,_ZNSt12_Vector_baseIN7testing8internal26ParameterizedTestSuiteInfoI18AccountBalanceTestE17InstantiationInfoESaIS5_EE19_M_get_Tp_allocatorEv
FNDA:309,_ZNSt12_Vector_baseIPKvSaIS1_EE19_M_get_Tp_allocatorEv
FNDA:3,_ZNSt12_Vector_baseIPN7testing8internal30ParameterizedTestSuiteInfoBaseESaIS3_EE19_M_get_Tp_allocatorEv
FNDA:338,_ZNSt12_Vector_baseISt10shared_ptrIN7testing8internal15ExpectationBaseEESaIS4_EE19_M_get_Tp_allocatorEv
FNDA:3,_ZNSt12_Vector_baseISt10shared_ptrIN7testing8internal26ParameterizedTestSuiteInfoI18AccountBalanceTestE8TestInfoEESaIS7_EE19_M_get_Tp_allocatorEv
FNDA:39,_ZNSt12_Vector_baseIiSaIiEE19_M_get_Tp_allocatorEv
FNDA:2,_ZNKSt12_Vector_baseIN7testing8internal26ParameterizedTestSuiteInfoI18AccountBalanceTestE17InstantiationInfoESaIS5_EE19_M_get_Tp_allocatorEv
FNDA:4,_ZNKSt12_Vector_baseIPKvSaIS1_EE19_M_get_Tp_allocatorEv
FNDA:2,_ZNKSt12_Vector_baseIPN7testing8internal30ParameterizedTestSuiteInfoBaseESaIS3_EE19_M_get_Tp_allocatorEv
FNDA:34,_ZNKSt12_Vector_baseISt10shared_ptrIN7testing8internal15ExpectationBaseEESaIS4_EE19_M_get_Tp_allocatorEv
FNDA:2,_ZNKSt12_Vector_baseISt10shared_ptrIN7testing8internal26ParameterizedTestSuiteInfoI18AccountBalanceTestE8TestInfoEESaIS7_EE19_M_get_Tp_allocatorEv
FNDA:1,_ZNSt12_Vector_baseIN7testing8internal26ParameterizedTestSuiteInfoI18AccountBalanceTestE17InstantiationInfoESaIS5_EEC2Ev
FNDA:161,_ZNSt12_Vector_baseIPKvSaIS1_EEC2Ev
FNDA:1,_ZNSt12_Vector_baseISt10shared_ptrIN7testing8internal26ParameterizedTestSuiteInfoI18AccountBalanceTestE8TestInfoEESaIS7_EEC2Ev
FNDA:2,_ZNSt12_Vector_baseIiSaIiEEC2ERKS0_
FNDA:1,_ZNSt12_Vector_baseIN7testing8internal26ParameterizedTestSuiteInfoI18AccountBalanceTestE17InstantiationInfoESaIS5_EED2Ev
FNDA:161,_ZNSt12_Vector_baseIPKvSaIS1_EED2Ev
FNDA:1,_ZNSt12_Vector_baseISt10shared_ptrIN7testing8internal26ParameterizedTestSuiteInfoI18AccountBalanceTestE8TestInfoEESaIS7_EED2Ev
FNDA:7,_ZNSt12_Vector_baseIiSaIiEED2Ev
FNDA:1,_ZNSt12_Vector_baseIN7testing8internal26ParameterizedTestSuiteInfoI18AccountBalanceTestE17InstantiationInfoESaIS5_EE11_M_allocateEm
FNDA:2,_ZNSt12_Vector_baseIPKvSaIS1_EE11_M_allocateEm
FNDA:1,_ZNSt12_Vector_baseIPN7testing8internal30ParameterizedTestSuiteInfoBaseESaIS3_EE11_M_allocateEm
FNDA:17,_ZNSt12_Vector_baseISt10shared_ptrIN7testing8internal15ExpectationBaseEESaIS4_EE11_M_allocateEm
FNDA:1,_ZNSt12_Vector_baseISt10shared_ptrIN7testing8internal26ParameterizedTestSuiteInfoI18AccountBalanceTestE8TestInfoEESaIS7_EE11_M_allocateEm
FNDA:16,_ZNSt12_Vector_baseIiSaIiEE11_M_allocateEm
FNDA:2,_ZNSt12_Vector_baseIN7testing8internal26ParameterizedTestSuiteInfoI18AccountBalanceTestE17InstantiationInfoESaIS5_EE13_M_deallocateEPS5_m
FNDA:163,_ZNSt12_Vector_baseIPKvSaIS1_EE13_M_deallocateEPS1_m
FNDA:2,_ZNSt12_Vector_baseIPN7testing8internal30ParameterizedTestSuiteInfoBaseESaIS3_EE13_M_deallocateEPS3_m
FNDA:161,_ZNSt12_Vector_baseISt10shared_ptrIN7testing8internal15ExpectationBaseEESaIS4_EE13_M_deallocateEPS4_m
FNDA:2,_ZNSt12_Vector_baseISt10shared_ptrIN7testing8internal26ParameterizedTestSuiteInfoI18AccountBalanceTestE8TestInfoEESaIS7_EE13_M_deallocateEPS7_m
FNDA:21,_ZNSt12_Vector_baseIiSaIiEE13_M_deallocateEPim
FNDA:2,_ZNSt6vectorIN7testing8internal26ParameterizedTestSuiteInfoI18AccountBalanceTestE17InstantiationInfoESaIS5_EE19_S_nothrow_relocateESt17integral_constantIbLb1EE
FNDA:4,_ZNSt6vectorIPKvSaIS1_EE19_S_nothrow_relocateESt17integral_constantIbLb1EE
FNDA:2,_ZNSt6vectorIPN7testing8internal30ParameterizedTestSuiteInfoBaseESaIS3_EE19_S_nothrow_relocateESt17integral_constantIbLb1EE
FNDA:34,_ZNSt6vectorISt10shared_ptrIN7testing8internal15ExpectationBaseEESaIS4_EE19_S_nothrow_relocateESt17integral_constantIbLb1EE
FNDA:2,_ZNSt6vectorISt10shared_ptrIN7testing8internal26ParameterizedTestSuiteInfoI18AccountBalanceTestE8TestInfoEESaIS7_EE19_S_nothrow_relocateESt17integral_constantIbLb1EE
FNDA:2,_ZNSt6vectorIN7testing8internal26ParameterizedTestSuiteInfoI18AccountBalanceTestE17InstantiationInfoESaIS5_EE15_S_use_relocateEv
FNDA:4,_ZNSt6vectorIPKvSaIS1_EE15_S_use_relocateEv
FNDA:2,_ZNSt6vectorIPN7testing8internal30ParameterizedTestSuiteInfoBaseESaIS3_EE15_S_use_relocateEv
FNDA:34,_ZNSt6vectorISt10shared_ptrIN7testing8internal15ExpectationBaseEESaIS4_EE15_S_use_relocateEv
FNDA:2,_ZNSt6vectorISt10shared_ptrIN7testing8internal26ParameterizedTestSuiteInfoI18AccountBalanceTestE8TestInfoEESaIS7_EE15_S_use_relocateEv
FNDA:2,_ZNSt6vectorIN7testing8internal26ParameterizedTestSuiteInfoI18AccountBalanceTestE17InstantiationInfoESaIS5_EE14_S_do_relocateEPS5_S8_S8_RS6_St17integral_constantIbLb1EE
FNDA:4,_ZNSt6vectorIPKvSaIS1_EE14_S_do_relocateEPS1_S4_S4_RS2_St17integral_constantIbLb1EE
FNDA:2,_ZNSt6vectorIPN7testing8internal30ParameterizedTestSuiteInfoBaseESaIS3_EE14_S_do_relocateEPS3_S6_S6_RS4_St17integral_constantIbLb1EE
FNDA:34,_ZNSt6vectorISt10shared_ptrIN7testing8internal15ExpectationBaseEESaIS4_EE14_S_do_relocateEPS4_S7_S7_RS5_St17integral_constantIbLb1EE
FNDA:2,_ZNSt6vectorISt10shared_ptrIN7testing8internal26ParameterizedTestSuiteInfoI18AccountBalanceTestE8TestInfoEESaIS7_EE14_S_do_relocateEPS7_SA_SA_RS8_St17integral_constantIbLb1EE
FNDA:2,_ZNSt6vectorIN7testing8internal26ParameterizedTestSuiteInfoI18AccountBalanceTestE17InstantiationInfoESaIS5_EE11_S_relocateEPS5_S8_S8_RS6_
FNDA:4,_ZNSt6vectorIPKvSaIS1_EE11_S_relocateEPS1_S4_S4_RS2_
FNDA:2,_ZNSt6vectorIPN7testing8internal30ParameterizedTestSuiteInfoBaseESaIS3_EE11_S_relocateEPS3_S6_S6_RS4_
FNDA:34,_ZNSt6vectorISt10shared_ptrIN7testing8internal15ExpectationBaseEESaIS4_EE11_S_relocateEPS4_S7_S7_RS5_
FNDA:2,_ZNSt6vectorISt10shared_ptrIN7testing8internal26ParameterizedTestSuiteInfoI18AccountBalanceTestE8TestInfoEESaIS7_EE11_S_relocateEPS7_SA_SA_RS8_
FNDA:1,_ZNSt6vectorIN7testing8internal26ParameterizedTestSuiteInfoI18AccountBalanceTestE17InstantiationInfoESaIS5_EEC2Ev
FNDA:161,_ZNSt6vectorIPKvSaIS1_EEC2Ev
FNDA:1,_ZNSt6vectorISt10shared_ptrIN7testing8internal26ParameterizedTestSuiteInfoI18AccountBalanceTestE8TestInfoEESaIS7_EEC2Ev
FNDA:1,_ZNSt6vectorIiSaIiEEC2ESt16initializer_listIiERKS0_
FNDA:1,_ZNSt6vectorIiSaIiEEC2IN9__gnu_cxx17__normal_iteratorIPKiS1_EEvEET_S8_RKS0_
FNDA:1,_ZNSt6vectorIN7testing8internal26ParameterizedTestSuiteInfoI18AccountBalanceTestE17InstantiationInfoESaIS5_EED2Ev
FNDA:161,_ZNSt6vectorIPKvSaIS1_EED2Ev
FNDA:1,_ZNSt6vectorISt10shared_ptrIN7testing8internal26ParameterizedTestSuiteInfoI18AccountBalanceTestE8TestInfoEESaIS7_EED2Ev
FNDA:7,_ZNSt6vectorIiSaIiEED2Ev
FNDA:2,_ZNSt6vectorIN7testing8internal26ParameterizedTestSuiteInfoI18AccountBalanceTestE17InstantiationInfoESaIS5_EE5beginEv
FNDA:91,_ZNSt6vectorIPKvSaIS1_EE5beginEv
FNDA:5,_ZNSt6vectorIPN7testing8internal30ParameterizedTestSuiteInfoBaseESaIS3_EE5beginEv
FNDA:89,_ZNSt6vectorISt10shared_ptrIN7testing8internal15ExpectationBaseEESaIS4_EE5beginEv
FNDA:2,_ZNSt6vectorISt10shared_ptrIN7testing8internal26ParameterizedTestSuiteInfoI18AccountBalanceTestE8TestInfoEESaIS7_EE5beginEv
FNDA:14,_ZNKSt6vectorIPKvSaIS1_EE5beginEv
FNDA:17,_ZNKSt6vectorISt10shared_ptrIN7testing8internal15ExpectationBaseEESaIS4_EE5beginEv
FNDA:0,_ZNKSt6vectorISt10shared_ptrIN7testing8internal26ParameterizedTestSuiteInfoI18AccountBalanceTestE8TestInfoEESaIS7_EE5beginEv
FNDA:2,_ZNKSt6vectorIiSaIiEE5beginEv
FNDA:3,_ZNSt6vectorIN7testing8internal26ParameterizedTestSuiteInfoI18AccountBalanceTestE17InstantiationInfoESaIS5_EE3endEv
FNDA:93,_ZNSt6vectorIPKvSaIS1_EE3endEv
FNDA:5,_ZNSt6vectorIPN7testing8internal30ParameterizedTestSuiteInfoBaseESaIS3_EE3endEv
FNDA:106,_ZNSt6vectorISt10shared_ptrIN7testing8internal15ExpectationBaseEESaIS4_EE3endEv
FNDA:3,_ZNSt6vectorISt10shared_ptrIN7testing8internal26ParameterizedTestSuiteInfoI18AccountBalanceTestE8TestInfoEESaIS7_EE3endEv
FNDA:14,_ZNKSt6vectorIPKvSaIS1_EE3endEv
FNDA:16,_ZNKSt6vectorISt10shared_ptrIN7testing8internal15ExpectationBaseEESaIS4_EE3endEv
FNDA:0,_ZNKSt6vectorISt10shared_ptrIN7testing8internal26ParameterizedTestSuiteInfoI18AccountBalanceTestE8TestInfoEESaIS7_EE3endEv
FNDA:6,_ZNKSt6vectorIiSaIiEE3endEv
FNDA:14,_ZNKSt6vectorIPKvSaIS1_EE6rbeginEv
FNDA:16,_ZNKSt6vectorISt10shared_ptrIN7testing8internal15ExpectationBaseEESaIS4_EE6rbeginEv
FNDA:14,_ZNKSt6vectorIPKvSaIS1_EE4rendEv
FNDA:17,_ZNKSt6vectorISt10shared_ptrIN7testing8internal15ExpectationBaseEESaIS4_EE4rendEv
FNDA:1,_ZNSt12_Vector_baseIN7testing8internal26ParameterizedTestSuiteInfoI18AccountBalanceTestE17InstantiationInfoESaIS5_EE17_Vector_impl_dataC2Ev
FNDA:233,_ZNSt12_Vector_baseIPKvSaIS1_EE17_Vector_impl_dataC2Ev
FNDA:1,_ZNSt12_Vector_baseISt10shared_ptrIN7testing8internal26ParameterizedTestSuiteInfoI18AccountBalanceTestE8TestInfoEESaIS7_EE17_Vector_impl_dataC2Ev
FNDA:7,_ZNSt12_Vector_baseIiSaIiEE17_Vector_impl_dataC2Ev
FNDA:4,_ZNKSt6vectorIN7testing8internal26ParameterizedTestSuiteInfoI18AccountBalanceTestE17InstantiationInfoESaIS5_EE4sizeEv
FNDA:27,_ZNKSt6vectorIPKvSaIS1_EE4sizeEv
FNDA:4,_ZNKSt6vectorIPN7testing8internal30ParameterizedTestSuiteInfoBaseESaIS3_EE4sizeEv
FNDA:84,_ZNKSt6vectorISt10shared_ptrIN7testing8internal15ExpectationBaseEESaIS4_EE4sizeEv
FNDA:4,_ZNKSt6vectorISt10shared_ptrIN7testing8internal26ParameterizedTestSuiteInfoI18AccountBalanceTestE8TestInfoEESaIS7_EE4sizeEv
FNDA:2,_ZNKSt6vectorIN7testing8internal26ParameterizedTestSuiteInfoI18AccountBalanceTestE17InstantiationInfoESaIS5_EE8max_sizeEv
FNDA:4,_ZNKSt6vectorIPKvSaIS1_EE8max_sizeEv
FNDA:2,_ZNKSt6vectorIPN7testing8internal30ParameterizedTestSuiteInfoBaseESaIS3_EE8max_sizeEv
FNDA:34,_ZNKSt6vectorISt10shared_ptrIN7testing8internal15ExpectationBaseEESaIS4_EE8max_sizeEv
FNDA:2,_ZNKSt6vectorISt10shared_ptrIN7testing8internal26ParameterizedTestSuiteInfoI18AccountBalanceTestE8TestInfoEESaIS7_EE8max_sizeEv
FNF:125
FNH:121
DA:99,242
DA:100,242
DA:101,242
DA:113,216
DA:115,216
DA:116,216
DA:117,216
DA:118,216
DA:122,72
DA:126,72
DA:127,72
DA:128,72
DA:129,72
DA:130,72
DA:137,163
DA:142,163
DA:143,163
DA:146,2
DA:147,2
DA:148,2
DA:301,695
DA:302,695
DA:306,44
DA:307,44
DA:315,163
DA:321,2
DA:322,2
DA:367,170
DA:369,170
DA:370,170
DA:371,170
DA:378,38
DA:381,76
DA:386,351
DA:389,351
DA:390,38
DA:391,351
DA:470,44
DA:475,44
DA:483,44
DA:488,44
DA:492,44
DA:495,44
DA:504,44
DA:512,44
DA:531,163
DA:678,1
DA:680,1
DA:682,1
DA:683,1
DA:684,1
DA:707,1
DA:709,1
DA:711,1
DA:712,1
DA:713,1
DA:733,170
DA:735,170
DA:736,170
DA:738,170
DA:873,189
DA:874,189
DA:883,33
DA:884,33
DA:893,210
DA:894,210
DA:903,36
DA:904,36
DA:923,30
DA:924,30
DA:943,31
DA:944,31
DA:992,123
DA:993,123
DA:998,44
DA:999,44
DA:1088,0
DA:1089,0
DA:1145,2
DA:1148,2
DA:1281,17
DA:1283,17
DA:1286,0
DA:1288,0
DA:1292,17
DA:1293,17
DA:1298,5
DA:1299,5
DA:1586,72
DA:1589,72
DA:1592,72
DA:1593,72
DA:1594,72
DA:1595,72
DA:1687,2
DA:1690,2
DA:1692,2
DA:1693,2
DA:1694,2
DA:1695,2
DA:1697,2
DA:1698,2
DA:1896,22
DA:1898,22
DA:1899,0
DA:1901,22
DA:1902,22
DA:1907,2
DA:1909,2
DA:1910,0
DA:1912,2
DA:1916,74
DA:1921,74
DA:1923,74
DA:1924,74
LF:115
LH:109
end_of_record
TN:
SF:/usr/include/c++/13/bits/unique_ptr.h
FN:174,174,_ZNSt15__uniq_ptr_implIKiSt14default_deleteIS0_EEC2Ev
FN:174,174,_ZNSt15__uniq_ptr_implINSt7__cxx1112basic_stringIcSt11char_traitsIcESaIcEEESt14default_deleteIS5_EEC2Ev
FN:176,176,_ZNSt15__uniq_ptr_implIN7testing8internal19TestMetaFactoryBaseIiEESt14default_deleteIS3_EEC2EPS3_
FN:176,176,_ZNSt15__uniq_ptr_implIN7testing8internal22ParamIteratorInterfaceIiEESt14default_deleteIS3_EEC2EPS3_
FN:197,197,_ZNSt15__uniq_ptr_implIKiSt14default_deleteIS0_EE6_M_ptrEv
FN:197,197,_ZNSt15__uniq_ptr_implIN7testing8internal19TestMetaFactoryBaseIiEESt14default_deleteIS3_EE6_M_ptrEv
FN:197,197,_ZNSt15__uniq_ptr_implIN7testing8internal22ParamIteratorInterfaceIiEESt14default_deleteIS3_EE6_M_ptrEv
FN:197,197,_ZNSt15__uniq_ptr_implINSt7__cxx1112basic_stringIcSt11char_traitsIcESaIcEEESt14default_deleteIS5_EE6_M_ptrEv
FN:197,197,_ZNSt15__uniq_ptr_implINSt7__cxx1118basic_stringstreamIcSt11char_traitsIcESaIcEEESt14default_deleteIS5_EE6_M_ptrEv
FN:199,199,_ZNKSt15__uniq_ptr_implIKiSt14default_deleteIS0_EE6_M_ptrEv
FN:199,199,_ZNKSt15__uniq_ptr_implIN7testing8internal11ThreadLocalIPNS0_8SequenceEE18ValueHolderFactoryESt14default_deleteIS6_EE6_M_ptrEv
FN:199,199,_ZNKSt15__uniq_ptr_implIN7testing8internal19TestMetaFactoryBaseIiEESt14default_deleteIS3_EE6_M_ptrEv
FN:199,199,_ZNKSt15__uniq_ptr_implIN7testing8internal22ParamIteratorInterfaceIiEESt14default_deleteIS3_EE6_M_ptrEv
FN:199,199,_ZNKSt15__uniq_ptr_implINSt7__cxx1112basic_stringIcSt11char_traitsIcESaIcEEESt14default_deleteIS5_EE6_M_ptrEv
FN:199,199,_ZNKSt15__uniq_ptr_implINSt7__cxx1118basic_stringstreamIcSt11char_traitsIcESaIcEEESt14default_deleteIS5_EE6_M_ptrEv
FN:201,201,_ZNSt15__uniq_ptr_implIKiSt14default_deleteIS0_EE10_M_deleterEv
FN:201,201,_ZNSt15__uniq_ptr_implIN7testing8internal19TestMetaFactoryBaseIiEESt14default_deleteIS3_EE10_M_deleterEv
FN:201,201,_ZNSt15__uniq_ptr_implIN7testing8internal22ParamIteratorInterfaceIiEESt14default_deleteIS3_EE10_M_deleterEv
FN:201,201,_ZNSt15__uniq_ptr_implINSt7__cxx1112basic_stringIcSt11char_traitsIcESaIcEEESt14default_deleteIS5_EE10_M_deleterEv
FN:201,201,_ZNSt15__uniq_ptr_implINSt7__cxx1118basic_stringstreamIcSt11char_traitsIcESaIcEEESt14default_deleteIS5_EE10_M_deleterEv
FN:206,212,_ZNSt15__uniq_ptr_implIKiSt14default_deleteIS0_EE5resetEPS0_
FN:304,306,_ZNSt10unique_ptrIKiSt14default_deleteIS0_EEC2IS2_vEEv
FN:304,306,_ZNSt10unique_ptrINSt7__cxx1112basic_stringIcSt11char_traitsIcESaIcEEESt14default_deleteIS5_EEC2IS7_vEEv
FN:317,319,_ZNSt10unique_ptrIN7testing8internal19TestMetaFactoryBaseIiEESt14default_deleteIS3_EEC2IS5_vEEPS3_
FN:317,319,_ZNSt10unique_ptrIN7testing8internal22ParamIteratorInterfaceIiEESt14default_deleteIS3_EEC2IS5_vEEPS3_
FN:398,406,_ZNSt10unique_ptrIKiSt14default_deleteIS0_EED2Ev
FN:398,406,_ZNSt10unique_ptrIN7testing8internal19TestMetaFactoryBaseIiEESt14default_deleteIS3_EED2Ev
FN:398,406,_ZNSt10unique_ptrIN7testing8internal22ParamIteratorInterfaceIiEESt14default_deleteIS3_EED2Ev
FN:398,406,_ZNSt10unique_ptrINSt7__cxx1112basic_stringIcSt11char_traitsIcESaIcEEESt14default_deleteIS5_EED2Ev
FN:398,406,_ZNSt10unique_ptrINSt7__cxx1118basic_stringstreamIcSt11char_traitsIcESaIcEEESt14default_deleteIS5_EED2Ev
FN:451,455,_ZNKSt10unique_ptrIN7testing8internal22ParamIteratorInterfaceIiEESt14default_deleteIS3_EEdeEv
FN:451,455,_ZNKSt10unique_ptrINSt7__cxx1118basic_stringstreamIcSt11char_traitsIcESaIcEEESt14default_deleteIS5_EEdeEv
FN:460,464,_ZNKSt10unique_ptrIN7testing8internal11ThreadLocalIPNS0_8SequenceEE18ValueHolderFactoryESt14default_deleteIS6_EEptEv
FN:460,464,_ZNKSt10unique_ptrIN7testing8internal19TestMetaFactoryBaseIiEESt14default_deleteIS3_EEptEv
FN:460,464,_ZNKSt10unique_ptrIN7testing8internal22ParamIteratorInterfaceIiEESt14default_deleteIS3_EEptEv
FN:460,464,_ZNKSt10unique_ptrINSt7__cxx1112basic_stringIcSt11char_traitsIcESaIcEEESt14default_deleteIS5_EEptEv
FN:469,470,_ZNKSt10unique_ptrIKiSt14default_deleteIS0_EE3getEv
FN:469,470,_ZNKSt10unique_ptrIN7testing8internal11ThreadLocalIPNS0_8SequenceEE18ValueHolderFactoryESt14default_deleteIS6_EE3getEv
FN:469,470,_ZNKSt10unique_ptrIN7testing8internal19TestMetaFactoryBaseIiEESt14default_deleteIS3_EE3getEv
FN:469,470,_ZNKSt10unique_ptrIN7testing8internal22ParamIteratorInterfaceIiEESt14default_deleteIS3_EE3getEv
FN:469,470,_ZNKSt10unique_ptrINSt7__cxx1112basic_stringIcSt11char_traitsIcESaIcEEESt14default_deleteIS5_EE3getEv
FN:469,470,_ZNKSt10unique_ptrINSt7__cxx1118basic_stringstreamIcSt11char_traitsIcESaIcEEESt14default_deleteIS5_EE3getEv
FN:475,476,_ZNSt10unique_ptrIKiSt14default_deleteIS0_EE11get_deleterEv
FN:475,476,_ZNSt10unique_ptrIN7testing8internal19TestMetaFactoryBaseIiEESt14default_deleteIS3_EE11get_deleterEv
FN:475,476,_ZNSt10unique_ptrIN7testing8internal22ParamIteratorInterfaceIiEESt14default_deleteIS3_EE11get_deleterEv
FN:475,476,_ZNSt10unique_ptrINSt7__cxx1112basic_stringIcSt11char_traitsIcESaIcEEESt14default_deleteIS5_EE11get_deleterEv
FN:475,476,_ZNSt10unique_ptrINSt7__cxx1118basic_stringstreamIcSt11char_traitsIcESaIcEEESt14default_deleteIS5_EE11get_deleterEv
FN:486,487,_ZNKSt10unique_ptrINSt7__cxx1112basic_stringIcSt11char_traitsIcESaIcEEESt14default_deleteIS5_EEcvbEv
FN:505,510,_ZNSt10unique_ptrIKiSt14default_deleteIS0_EE5resetEPS0_
FN:861,862,_ZStneINSt7__cxx1112basic_stringIcSt11char_traitsIcESaIcEEESt14default_deleteIS5_EEbRKSt10unique_ptrIT_T0_EDn
FN:93,100,_ZNKSt14default_deleteIKiEclEPS0_
FN:93,100,_ZNKSt14default_deleteIN7testing8internal19TestMetaFactoryBaseIiEEEclEPS3_
FN:93,100,_ZNKSt14default_deleteIN7testing8internal22ParamIteratorInterfaceIiEEEclEPS3_
FN:93,100,_ZNKSt14default_deleteINSt7__cxx1112basic_stringIcSt11char_traitsIcESaIcEEEEclEPS5_
FN:93,100,_ZNKSt14default_deleteINSt7__cxx1118basic_stringstreamIcSt11char_traitsIcESaIcEEEEclEPS5_
FNDA:6,_ZNSt15__uniq_ptr_implIKiSt14default_deleteIS0_EEC2Ev
FNDA:12,_ZNSt15__uniq_ptr_implINSt7__cxx1112basic_stringIcSt11char_traitsIcESaIcEEESt14default_deleteIS5_EEC2Ev
FNDA:1,_ZNSt15__uniq_ptr_implIN7testing8internal19TestMetaFactoryBaseIiEESt14default_deleteIS3_EEC2EPS3_
FNDA:6,_ZNSt15__uniq_ptr_implIN7testing8internal22ParamIteratorInterfaceIiEESt14default_deleteIS3_EEC2EPS3_
FNDA:22,_ZNSt15__uniq_ptr_implIKiSt14default_deleteIS0_EE6_M_ptrEv
FNDA:2,_ZNSt15__uniq_ptr_implIN7testing8internal19TestMetaFactoryBaseIiEESt14default_deleteIS3_EE6_M_ptrEv
FNDA:12,_ZNSt15__uniq_ptr_implIN7testing8internal22ParamIteratorInterfaceIiEESt14default_deleteIS3_EE6_M_ptrEv
FNDA:12,_ZNSt15__uniq_ptr_implINSt7__cxx1112basic_stringIcSt11char_traitsIcESaIcEEESt14default_deleteIS5_EE6_M_ptrEv
FNDA:210,_ZNSt15__uniq_ptr_implINSt7__cxx1118basic_stringstreamIcSt11char_traitsIcESaIcEEESt14default_deleteIS5_EE6_M_ptrEv
FNDA:24,_ZNKSt15__uniq_ptr_implIKiSt14default_deleteIS0_EE6_M_ptrEv
FNDA:1,_ZNKSt15__uniq_ptr_implIN7testing8internal11ThreadLocalIPNS0_8SequenceEE18ValueHolderFactoryESt14default_deleteIS6_EE6_M_ptrEv
FNDA:4,_ZNKSt15__uniq_ptr_implIN7testing8internal19TestMetaFactoryBaseIiEESt14default_deleteIS3_EE6_M_ptrEv
FNDA:36,_ZNKSt15__uniq_ptr_implIN7testing8internal22ParamIteratorInterfaceIiEESt14default_deleteIS3_EE6_M_ptrEv
FNDA:0,_ZNKSt15__uniq_ptr_implINSt7__cxx1112basic_stringIcSt11char_traitsIcESaIcEEESt14default_deleteIS5_EE6_M_ptrEv
FNDA:737,_ZNKSt15__uniq_ptr_implINSt7__cxx1118basic_stringstreamIcSt11char_traitsIcESaIcEEESt14default_deleteIS5_EE6_M_ptrEv
FNDA:4,_ZNSt15__uniq_ptr_implIKiSt14default_deleteIS0_EE10_M_deleterEv
FNDA:1,_ZNSt15__uniq_ptr_implIN7testing8internal19TestMetaFactoryBaseIiEESt14default_deleteIS3_EE10_M_deleterEv
FNDA:6,_ZNSt15__uniq_ptr_implIN7testing8internal22ParamIteratorInterfaceIiEESt14default_deleteIS3_EE10_M_deleterEv
FNDA:0,_ZNSt15__uniq_ptr_implINSt7__cxx1112basic_stringIcSt11char_traitsIcESaIcEEESt14default_deleteIS5_EE10_M_deleterEv
FNDA:105,_ZNSt15__uniq_ptr_implINSt7__cxx1118basic_stringstreamIcSt11char_traitsIcESaIcEEESt14default_deleteIS5_EE10_M_deleterEv
FNDA:8,_ZNSt15__uniq_ptr_implIKiSt14default_deleteIS0_EE5resetEPS0_
FNDA:6,_ZNSt10unique_ptrIKiSt14default_deleteIS0_EEC2IS2_vEEv
FNDA:12,_ZNSt10unique_ptrINSt7__cxx1112basic_stringIcSt11char_traitsIcESaIcEEESt14default_deleteIS5_EEC2IS7_vEEv
FNDA:1,_ZNSt10unique_ptrIN7testing8internal19TestMetaFactoryBaseIiEESt14default_deleteIS3_EEC2IS5_vEEPS3_
FNDA:6,_ZNSt10unique_ptrIN7testing8internal22ParamIteratorInterfaceIiEESt14default_deleteIS3_EEC2IS5_vEEPS3_
FNDA:6,_ZNSt10unique_ptrIKiSt14default_deleteIS0_EED2Ev
FNDA:1,_ZNSt10unique_ptrIN7testing8internal19TestMetaFactoryBaseIiEESt14default_deleteIS3_EED2Ev
FNDA:6,_ZNSt10unique_ptrIN7testing8internal22ParamIteratorInterfaceIiEESt14default_deleteIS3_EED2Ev
FNDA:12,_ZNSt10unique_ptrINSt7__cxx1112basic_stringIcSt11char_traitsIcESaIcEEESt14default_deleteIS5_EED2Ev
FNDA:105,_ZNSt10unique_ptrINSt7__cxx1118basic_stringstreamIcSt11char_traitsIcESaIcEEESt14default_deleteIS5_EED2Ev
FNDA:5,_ZNKSt10unique_ptrIN7testing8internal22ParamIteratorInterfaceIiEESt14default_deleteIS3_EEdeEv
FNDA:632,_ZNKSt10unique_ptrINSt7__cxx1118basic_stringstreamIcSt11char_traitsIcESaIcEEESt14default_deleteIS5_EEdeEv
FNDA:1,_ZNKSt10unique_ptrIN7testing8internal11ThreadLocalIPNS0_8SequenceEE18ValueHolderFactoryESt14default_deleteIS6_EEptEv
FNDA:4,_ZNKSt10unique_ptrIN7testing8internal19TestMetaFactoryBaseIiEESt14default_deleteIS3_EEptEv
FNDA:21,_ZNKSt10unique_ptrIN7testing8internal22ParamIteratorInterfaceIiEESt14default_deleteIS3_EEptEv
FNDA:0,_ZNKSt10unique_ptrINSt7__cxx1112basic_stringIcSt11char_traitsIcESaIcEEESt14default_deleteIS5_EEptEv
FNDA:24,_ZNKSt10unique_ptrIKiSt14default_deleteIS0_EE3getEv
FNDA:1,_ZNKSt10unique_ptrIN7testing8internal11ThreadLocalIPNS0_8SequenceEE18ValueHolderFactoryESt14default_deleteIS6_EE3getEv
FNDA:4,_ZNKSt10unique_ptrIN7testing8internal19TestMetaFactoryBaseIiEESt14default_deleteIS3_EE3getEv
FNDA:36,_ZNKSt10unique_ptrIN7testing8internal22ParamIteratorInterfaceIiEESt14default_deleteIS3_EE3getEv
FNDA:0,_ZNKSt10unique_ptrINSt7__cxx1112basic_stringIcSt11char_traitsIcESaIcEEESt14default_deleteIS5_EE3getEv
FNDA:737,_ZNKSt10unique_ptrINSt7__cxx1118basic_stringstreamIcSt11char_traitsIcESaIcEEESt14default_deleteIS5_EE3getEv
FNDA:0,_ZNSt10unique_ptrIKiSt14default_deleteIS0_EE11get_deleterEv
FNDA:1,_ZNSt10unique_ptrIN7testing8internal19TestMetaFactoryBaseIiEESt14default_deleteIS3_EE11get_deleterEv
FNDA:6,_ZNSt10unique_ptrIN7testing8internal22ParamIteratorInterfaceIiEESt14default_deleteIS3_EE11get_deleterEv
FNDA:0,_ZNSt10unique_ptrINSt7__cxx1112basic_stringIcSt11char_traitsIcESaIcEEESt14default_deleteIS5_EE11get_deleterEv
FNDA:105,_ZNSt10unique_ptrINSt7__cxx1118basic_stringstreamIcSt11char_traitsIcESaIcEEESt14default_deleteIS5_EE11get_deleterEv
FNDA:0,_ZNKSt10unique_ptrINSt7__cxx1112basic_stringIcSt11char_traitsIcESaIcEEESt14default_deleteIS5_EEcvbEv
FNDA:8,_ZNSt10unique_ptrIKiSt14default_deleteIS0_EE5resetEPS0_
FNDA:0,_ZStneINSt7__cxx1112basic_stringIcSt11char_traitsIcESaIcEEESt14default_deleteIS5_EEbRKSt10unique_ptrIT_T0_EDn
FNDA:4,_ZNKSt14default_deleteIKiEclEPS0_
FNDA:1,_ZNKSt14default_deleteIN7testing8internal19TestMetaFactoryBaseIiEEEclEPS3_
FNDA:6,_ZNKSt14default_deleteIN7testing8internal22ParamIteratorInterfaceIiEEEclEPS3_
FNDA:0,_ZNKSt14default_deleteINSt7__cxx1112basic_stringIcSt11char_traitsIcESaIcEEEEclEPS5_
FNDA:105,_ZNKSt14default_deleteINSt7__cxx1118basic_stringstreamIcSt11char_traitsIcESaIcEEEEclEPS5_
FNF:55
FNH:46
DA:93,116
DA:99,116
DA:100,116
DA:174,18
DA:176,7
DA:197,258
DA:199,802
DA:201,116
DA:206,8
DA:208,8
DA:209,8
DA:210,8
DA:211,4
DA:212,8
DA:304,18
DA:305,18
DA:306,18
DA:317,7
DA:318,7
DA:319,7
DA:398,130
DA:402,130
DA:403,130
DA:404,112
DA:405,130
DA:406,130
DA:451,637
DA:453,637
DA:454,637
DA:460,26
DA:463,26
DA:469,802
DA:470,802
DA:475,112
DA:476,112
DA:486,0
DA:487,0
DA:505,8
DA:509,8
DA:510,8
DA:861,0
DA:862,0
LF:42
LH:38
end_of_record
TN:
SF:/usr/include/c++/13/bits/vector.tcc
FN:111,127,_ZNSt6vectorIN7testing8internal26ParameterizedTestSuiteInfoI18AccountBalanceTestE17InstantiationInfoESaIS5_EE12emplace_backIJS5_EEEvDpOT_
FN:111,127,_ZNSt6vectorIPKvSaIS1_EE12emplace_backIJS1_EEEvDpOT_
FN:111,127,_ZNSt6vectorIPN7testing8internal30ParameterizedTestSuiteInfoBaseESaIS3_EE12emplace_backIJS3_EEEvDpOT_
FN:111,127,_ZNSt6vectorISt10shared_ptrIN7testing8internal26ParameterizedTestSuiteInfoI18AccountBalanceTestE8TestInfoEESaIS7_EE12emplace_backIJS7_EEEvDpOT_
FN:445,524,_ZNSt6vectorIN7testing8internal26ParameterizedTestSuiteInfoI18AccountBalanceTestE17InstantiationInfoESaIS5_EE17_M_realloc_insertIJS5_EEEvN9__gnu_cxx17__normal_iteratorIPS5_S7_EEDpOT_
FN:445,524,_ZNSt6vectorIPKvSaIS1_EE17_M_realloc_insertIJS1_EEEvN9__gnu_cxx17__normal_iteratorIPS1_S3_EEDpOT_
FN:445,524,_ZNSt6vectorIPN7testing8internal30ParameterizedTestSuiteInfoBaseESaIS3_EE17_M_realloc_insertIJS3_EEEvN9__gnu_cxx17__normal_iteratorIPS3_S5_EEDpOT_
FN:445,524,_ZNSt6vectorISt10shared_ptrIN7testing8internal15ExpectationBaseEESaIS4_EE17_M_realloc_insertIJRKS4_EEEvN9__gnu_cxx17__normal_iteratorIPS4_S6_EEDpOT_
FN:445,524,_ZNSt6vectorISt10shared_ptrIN7testing8internal26ParameterizedTestSuiteInfoI18AccountBalanceTestE8TestInfoEESaIS7_EE17_M_realloc_insertIJS7_EEEvN9__gnu_cxx17__normal_iteratorIPS7_S9_EEDpOT_
FNDA:1,_ZNSt6vectorIN7testing8internal26ParameterizedTestSuiteInfoI18AccountBalanceTestE17InstantiationInfoESaIS5_EE12emplace_backIJS5_EEEvDpOT_
FNDA:2,_ZNSt6vectorIPKvSaIS1_EE12emplace_backIJS1_EEEvDpOT_
FNDA:1,_ZNSt6vectorIPN7testing8internal30ParameterizedTestSuiteInfoBaseESaIS3_EE12emplace_backIJS3_EEEvDpOT_
FNDA:1,_ZNSt6vectorISt10shared_ptrIN7testing8internal26ParameterizedTestSuiteInfoI18AccountBalanceTestE8TestInfoEESaIS7_EE12emplace_backIJS7_EEEvDpOT_
FNDA:1,_ZNSt6vectorIN7testing8internal26ParameterizedTestSuiteInfoI18AccountBalanceTestE17InstantiationInfoESaIS5_EE17_M_realloc_insertIJS5_EEEvN9__gnu_cxx17__normal_iteratorIPS5_S7_EEDpOT_
FNDA:2,_ZNSt6vectorIPKvSaIS1_EE17_M_realloc_insertIJS1_EEEvN9__gnu_cxx17__normal_iteratorIPS1_S3_EEDpOT_
FNDA:1,_ZNSt6vectorIPN7testing8internal30ParameterizedTestSuiteInfoBaseESaIS3_EE17_M_realloc_insertIJS3_EEEvN9__gnu_cxx17__normal_iteratorIPS3_S5_EEDpOT_
FNDA:17,_ZNSt6vectorISt10shared_ptrIN7testing8internal15ExpectationBaseEESaIS4_EE17_M_realloc_insertIJRKS4_EEEvN9__gnu_cxx17__normal_iteratorIPS4_S6_EEDpOT_
FNDA:1,_ZNSt6vectorISt10shared_ptrIN7testing8internal26ParameterizedTestSuiteInfoI18AccountBalanceTestE8TestInfoEESaIS7_EE17_M_realloc_insertIJS7_EEEvN9__gnu_cxx17__normal_iteratorIPS7_S9_EEDpOT_
FNF:9
FNH:9
DA:111,5
DA:114,5
DA:117,0
DA:119,0
DA:123,5
DA:127,5
DA:445,22
DA:455,22
DA:456,22
DA:457,22
DA:458,22
DA:459,22
DA:460,22
DA:468,22
DA:469,22
DA:475,22
DA:478,22
DA:480,22
DA:481,22
DA:483,22
DA:485,22
DA:486,22
DA:493,0
DA:494,0
DA:496,0
DA:500,0
DA:501,0
DA:504,0
DA:506,0
DA:507,0
DA:508,0
DA:510,0
DA:511,0
DA:512,0
DA:515,22
DA:517,0
DA:519,22
DA:520,22
DA:521,22
DA:522,22
DA:523,22
DA:524,22
LF:42
LH:27
end_of_record
TN:
SF:/usr/include/c++/13/ext/aligned_buffer.h
FN:104,107,_ZN9__gnu_cxx16__aligned_bufferIN7testing10OnceActionIFivEEEE7_M_addrEv
FN:104,107,_ZN9__gnu_cxx16__aligned_bufferIN7testing8internal12ReturnActionIiE4ImplIiEEE7_M_addrEv
FN:116,117,_ZN9__gnu_cxx16__aligned_bufferIN7testing10OnceActionIFivEEEE6_M_ptrEv
FN:116,117,_ZN9__gnu_cxx16__aligned_bufferIN7testing8internal12ReturnActionIiE4ImplIiEEE6_M_ptrEv
FN:64,65,_ZN9__gnu_cxx16__aligned_membufIN7testing11ExpectationEE7_M_addrEv
FN:64,65,_ZN9__gnu_cxx16__aligned_membufINSt7__cxx1112basic_stringIcSt11char_traitsIcESaIcEEEE7_M_addrEv
FN:68,69,_ZNK9__gnu_cxx16__aligned_membufIN7testing11ExpectationEE7_M_addrEv
FN:68,69,_ZNK9__gnu_cxx16__aligned_membufINSt7__cxx1112basic_stringIcSt11char_traitsIcESaIcEEEE7_M_addrEv
FN:72,73,_ZN9__gnu_cxx16__aligned_membufIN7testing11ExpectationEE6_M_ptrEv
FN:72,73,_ZN9__gnu_cxx16__aligned_membufINSt7__cxx1112basic_stringIcSt11char_traitsIcESaIcEEEE6_M_ptrEv
FN:76,77,_ZNK9__gnu_cxx16__aligned_membufIN7testing11ExpectationEE6_M_ptrEv
FN:76,77,_ZNK9__gnu_cxx16__aligned_membufINSt7__cxx1112basic_stringIcSt11char_traitsIcESaIcEEEE6_M_ptrEv
FNDA:6,_ZN9__gnu_cxx16__aligned_bufferIN7testing10OnceActionIFivEEEE7_M_addrEv
FNDA:6,_ZN9__gnu_cxx16__aligned_bufferIN7testing8internal12ReturnActionIiE4ImplIiEEE7_M_addrEv
FNDA:6,_ZN9__gnu_cxx16__aligned_bufferIN7testing10OnceActionIFivEEEE6_M_ptrEv
FNDA:6,_ZN9__gnu_cxx16__aligned_bufferIN7testing8internal12ReturnActionIiE4ImplIiEEE6_M_ptrEv
FNDA:28,_ZN9__gnu_cxx16__aligned_membufIN7testing11ExpectationEE7_M_addrEv
FNDA:8,_ZN9__gnu_cxx16__aligned_membufINSt7__cxx1112basic_stringIcSt11char_traitsIcESaIcEEEE7_M_addrEv
FNDA:83,_ZNK9__gnu_cxx16__aligned_membufIN7testing11ExpectationEE7_M_addrEv
FNDA:16,_ZNK9__gnu_cxx16__aligned_membufINSt7__cxx1112basic_stringIcSt11char_traitsIcESaIcEEEE7_M_addrEv
FNDA:28,_ZN9__gnu_cxx16__aligned_membufIN7testing11ExpectationEE6_M_ptrEv
FNDA:8,_ZN9__gnu_cxx16__aligned_membufINSt7__cxx1112basic_stringIcSt11char_traitsIcESaIcEEEE6_M_ptrEv
FNDA:83,_ZNK9__gnu_cxx16__aligned_membufIN7testing11ExpectationEE6_M_ptrEv
FNDA:16,_ZNK9__gnu_cxx16__aligned_membufINSt7__cxx1112basic_stringIcSt11char_traitsIcESaIcEEEE6_M_ptrEv
FNF:12
FNH:12
DA:64,36
DA:65,36
DA:68,99
DA:69,99
DA:72,36
DA:73,36
DA:76,99
DA:77,99
DA:104,12
DA:106,12
DA:116,12
DA:117,12
LF:12
LH:12
end_of_record
TN:
SF:/usr/include/c++/13/ext/alloc_traits.h
FNF:0
FNH:0
DA:98,66
DA:102,72
LF:2
LH:2
end_of_record
TN:
SF:/usr/include/c++/13/ext/atomicity.h
FNF:0
FNH:0
DA:52,142
DA:66,0
DA:71,0
DA:84,71
DA:85,71
DA:86,71
DA:92,71
DA:98,71
DA:99,71
DA:101,0
DA:108,71
DA:112,71
LF:12
LH:9
end_of_record
TN:
SF:/usr/include/c++/13/initializer_list
FN:69,69,_ZNKSt16initializer_listIiE4sizeEv
FN:73,73,_ZNKSt16initializer_listIiE5beginEv
FN:77,77,_ZNKSt16initializer_listIiE3endEv
FNDA:1,_ZNKSt16initializer_listIiE4sizeEv
FNDA:2,_ZNKSt16initializer_listIiE5beginEv
FNDA:1,_ZNKSt16initializer_listIiE3endEv
FNF:3
FNH:3
DA:69,1
DA:73,2
DA:77,1
LF:3
LH:3
end_of_record
TN:
SF:/usr/include/c++/13/new
FN:174,175,_ZnwmPv
FN:180,180,_ZdlPvS_
FNDA:335,_ZnwmPv
FNDA:0,_ZdlPvS_
FNF:2
FNH:1
DA:174,335
DA:175,335
DA:180,0
LF:3
LH:2
end_of_record
TN:
SF:/usr/include/c++/13/tuple
FN:125,125,_ZNSt10_Head_baseILm1ESt14default_deleteIKiELb1EE7_M_headERS3_
FN:125,125,_ZNSt10_Head_baseILm1ESt14default_deleteIN7testing8internal19TestMetaFactoryBaseIiEEELb1EE7_M_headERS6_
FN:125,125,_ZNSt10_Head_baseILm1ESt14default_deleteIN7testing8internal22ParamIteratorInterfaceIiEEELb1EE7_M_headERS6_
FN:125,125,_ZNSt10_Head_baseILm1ESt14default_deleteINSt7__cxx1112basic_stringIcSt11char_traitsIcESaIcEEEELb1EE7_M_headERS8_
FN:125,125,_ZNSt10_Head_baseILm1ESt14default_deleteINSt7__cxx1118basic_stringstreamIcSt11char_traitsIcESaIcEEEELb1EE7_M_headERS8_
FN:1317,1319,_ZNSt5tupleIJPKiSt14default_deleteIS0_EEEC2ILb1ELb1EEEv
FN:1317,1319,_ZNSt5tupleIJPN7testing8internal19TestMetaFactoryBaseIiEESt14default_deleteIS3_EEEC2ILb1ELb1EEEv
FN:1317,1319,_ZNSt5tupleIJPN7testing8internal22ParamIteratorInterfaceIiEESt14default_deleteIS3_EEEC2ILb1ELb1EEEv
FN:1317,1319,_ZNSt5tupleIJPNSt7__cxx1112basic_stringIcSt11char_traitsIcESaIcEEESt14default_deleteIS5_EEEC2ILb1ELb1EEEv
FN:1345,1347,_ZNSt5tupleIJPKN7testing8internal11MatcherBaseIR7AccountEEPKNS1_15AnythingMatcherEEEC2IS7_SA_Lb1EEEOT_OT0_
FN:1345,1347,_ZNSt5tupleIJPKN7testing8internal11MatcherBaseIRKS_IJEEEEPKNS1_15AnythingMatcherEEEC2IS8_SB_Lb1EEEOT_OT0_
FN:1345,1347,_ZNSt5tupleIJPKN7testing8internal11MatcherBaseIRKS_IJR7AccountS4_iEEEEPKNS1_15AnythingMatcherEEEC2ISA_SD_Lb1EEEOT_OT0_
FN:1345,1347,_ZNSt5tupleIJPKN7testing8internal11MatcherBaseIRKS_IJiEEEEPKNS1_15AnythingMatcherEEEC2IS8_SB_Lb1EEEOT_OT0_
FN:1345,1347,_ZNSt5tupleIJPKN7testing8internal11MatcherBaseIiEEPKNS1_15AnythingMatcherEEEC2IS5_S8_Lb1EEEOT_OT0_
FN:1345,1347,_ZNSt5tupleIJPKN7testing8internal11MatcherBaseIiEEPKNS1_9EqMatcherIiEEEEC2IS5_S9_Lb1EEEOT_OT0_
FN:1787,1788,_ZSt12__get_helperILm0EPKN7testing8internal11MatcherBaseIR7AccountEEJPKNS1_15AnythingMatcherEEERT0_RSt11_Tuple_implIXT_EJSB_DpT1_EE
FN:1787,1788,_ZSt12__get_helperILm0EPKN7testing8internal11MatcherBaseIRKSt5tupleIJEEEEJPKNS1_15AnythingMatcherEEERT0_RSt11_Tuple_implIXT_EJSD_DpT1_EE
FN:1787,1788,_ZSt12__get_helperILm0EPKN7testing8internal11MatcherBaseIRKSt5tupleIJR7AccountS5_iEEEEJPKNS1_15AnythingMatcherEEERT0_RSt11_Tuple_implIXT_EJSF_DpT1_EE
FN:1787,1788,_ZSt12__get_helperILm0EPKN7testing8internal11MatcherBaseIRKSt5tupleIJiEEEEJPKNS1_15AnythingMatcherEEERT0_RSt11_Tuple_implIXT_EJSD_DpT1_EE
FN:1787,1788,_ZSt12__get_helperILm0EPKN7testing8internal11MatcherBaseIiEEJPKNS1_15AnythingMatcherEEERT0_RSt11_Tuple_implIXT_EJS9_DpT1_EE
FN:1787,1788,_ZSt12__get_helperILm0EPKN7testing8internal11MatcherBaseIiEEJPKNS1_9EqMatcherIiEEEERT0_RSt11_Tuple_implIXT_EJSA_DpT1_EE
FN:1787,1788,_ZSt12__get_helperILm0EPKiJSt14default_deleteIS0_EEERT0_RSt11_Tuple_implIXT_EJS4_DpT1_EE
FN:1787,1788,_ZSt12__get_helperILm0EPN7testing8internal19TestMetaFactoryBaseIiEEJSt14default_deleteIS3_EEERT0_RSt11_Tuple_implIXT_EJS7_DpT1_EE
FN:1787,1788,_ZSt12__get_helperILm0EPN7testing8internal22ParamIteratorInterfaceIiEEJSt14default_deleteIS3_EEERT0_RSt11_Tuple_implIXT_EJS7_DpT1_EE
FN:1787,1788,_ZSt12__get_helperILm0EPNSt7__cxx1112basic_stringIcSt11char_traitsIcESaIcEEEJSt14default_deleteIS5_EEERT0_RSt11_Tuple_implIXT_EJS9_DpT1_EE
FN:1787,1788,_ZSt12__get_helperILm0EPNSt7__cxx1118basic_stringstreamIcSt11char_traitsIcESaIcEEEJSt14default_deleteIS5_EEERT0_RSt11_Tuple_implIXT_EJS9_DpT1_EE
FN:1787,1788,_ZSt12__get_helperILm0ER7AccountJS1_iEERT0_RSt11_Tuple_implIXT_EJS2_DpT1_EE
FN:1787,1788,_ZSt12__get_helperILm0EiJEERT0_RSt11_Tuple_implIXT_EJS0_DpT1_EE
FN:1787,1788,_ZSt12__get_helperILm1ER7AccountJiEERT0_RSt11_Tuple_implIXT_EJS2_DpT1_EE
FN:1787,1788,_ZSt12__get_helperILm1ESt14default_deleteIKiEJEERT0_RSt11_Tuple_implIXT_EJS3_DpT1_EE
FN:1787,1788,_ZSt12__get_helperILm1ESt14default_deleteIN7testing8internal19TestMetaFactoryBaseIiEEEJEERT0_RSt11_Tuple_implIXT_EJS6_DpT1_EE
FN:1787,1788,_ZSt12__get_helperILm1ESt14default_deleteIN7testing8internal22ParamIteratorInterfaceIiEEEJEERT0_RSt11_Tuple_implIXT_EJS6_DpT1_EE
FN:1787,1788,_ZSt12__get_helperILm1ESt14default_deleteINSt7__cxx1112basic_stringIcSt11char_traitsIcESaIcEEEEJEERT0_RSt11_Tuple_implIXT_EJS8_DpT1_EE
FN:1787,1788,_ZSt12__get_helperILm1ESt14default_deleteINSt7__cxx1118basic_stringstreamIcSt11char_traitsIcESaIcEEEEJEERT0_RSt11_Tuple_implIXT_EJS8_DpT1_EE
FN:1787,1788,_ZSt12__get_helperILm2EiJEERT0_RSt11_Tuple_implIXT_EJS0_DpT1_EE
FN:1792,1793,_ZSt12__get_helperILm0EN7testing7MatcherIR7AccountEEJS4_NS1_IiEEEERKT0_RKSt11_Tuple_implIXT_EJS6_DpT1_EE
FN:1792,1793,_ZSt12__get_helperILm0EN7testing7MatcherIiEEJEERKT0_RKSt11_Tuple_implIXT_EJS3_DpT1_EE
FN:1792,1793,_ZSt12__get_helperILm0EPKiJSt14default_deleteIS0_EEERKT0_RKSt11_Tuple_implIXT_EJS4_DpT1_EE
FN:1792,1793,_ZSt12__get_helperILm0EPN7testing8internal11ThreadLocalIPNS0_8SequenceEE18ValueHolderFactoryEJSt14default_deleteIS6_EEERKT0_RKSt11_Tuple_implIXT_EJSA_DpT1_EE
FN:1792,1793,_ZSt12__get_helperILm0EPN7testing8internal19TestMetaFactoryBaseIiEEJSt14default_deleteIS3_EEERKT0_RKSt11_Tuple_implIXT_EJS7_DpT1_EE
FN:1792,1793,_ZSt12__get_helperILm0EPN7testing8internal22ParamIteratorInterfaceIiEEJSt14default_deleteIS3_EEERKT0_RKSt11_Tuple_implIXT_EJS7_DpT1_EE
FN:1792,1793,_ZSt12__get_helperILm0EPNSt7__cxx1112basic_stringIcSt11char_traitsIcESaIcEEEJSt14default_deleteIS5_EEERKT0_RKSt11_Tuple_implIXT_EJS9_DpT1_EE
FN:1792,1793,_ZSt12__get_helperILm0EPNSt7__cxx1118basic_stringstreamIcSt11char_traitsIcESaIcEEEJSt14default_deleteIS5_EEERKT0_RKSt11_Tuple_implIXT_EJS9_DpT1_EE
FN:1792,1793,_ZSt12__get_helperILm0ER7AccountJS1_iEERKT0_RKSt11_Tuple_implIXT_EJS2_DpT1_EE
FN:1792,1793,_ZSt12__get_helperILm0EiJEERKT0_RKSt11_Tuple_implIXT_EJS0_DpT1_EE
FN:1792,1793,_ZSt12__get_helperILm1EN7testing7MatcherIR7AccountEEJNS1_IiEEEERKT0_RKSt11_Tuple_implIXT_EJS6_DpT1_EE
FN:1792,1793,_ZSt12__get_helperILm1ER7AccountJiEERKT0_RKSt11_Tuple_implIXT_EJS2_DpT1_EE
FN:1792,1793,_ZSt12__get_helperILm2EN7testing7MatcherIiEEJEERKT0_RKSt11_Tuple_implIXT_EJS3_DpT1_EE
FN:1792,1793,_ZSt12__get_helperILm2EiJEERKT0_RKSt11_Tuple_implIXT_EJS0_DpT1_EE
FN:1803,1804,_ZSt3getILm0EJPKiSt14default_deleteIS0_EEERNSt13tuple_elementIXT_ESt5tupleIJDpT0_EEE4typeERS8_
FN:1803,1804,_ZSt3getILm0EJPN7testing8internal19TestMetaFactoryBaseIiEESt14default_deleteIS3_EEERNSt13tuple_elementIXT_ESt5tupleIJDpT0_EEE4typeERSB_
FN:1803,1804,_ZSt3getILm0EJPN7testing8internal22ParamIteratorInterfaceIiEESt14default_deleteIS3_EEERNSt13tuple_elementIXT_ESt5tupleIJDpT0_EEE4typeERSB_
FN:1803,1804,_ZSt3getILm0EJPNSt7__cxx1112basic_stringIcSt11char_traitsIcESaIcEEESt14default_deleteIS5_EEERNSt13tuple_elementIXT_ESt5tupleIJDpT0_EEE4typeERSD_
FN:1803,1804,_ZSt3getILm0EJPNSt7__cxx1118basic_stringstreamIcSt11char_traitsIcESaIcEEESt14default_deleteIS5_EEERNSt13tuple_elementIXT_ESt5tupleIJDpT0_EEE4typeERSD_
FN:1803,1804,_ZSt3getILm1EJPKiSt14default_deleteIS0_EEERNSt13tuple_elementIXT_ESt5tupleIJDpT0_EEE4typeERS8_
FN:1803,1804,_ZSt3getILm1EJPN7testing8internal19TestMetaFactoryBaseIiEESt14default_deleteIS3_EEERNSt13tuple_elementIXT_ESt5tupleIJDpT0_EEE4typeERSB_
FN:1803,1804,_ZSt3getILm1EJPN7testing8internal22ParamIteratorInterfaceIiEESt14default_deleteIS3_EEERNSt13tuple_elementIXT_ESt5tupleIJDpT0_EEE4typeERSB_
FN:1803,1804,_ZSt3getILm1EJPNSt7__cxx1112basic_stringIcSt11char_traitsIcESaIcEEESt14default_deleteIS5_EEERNSt13tuple_elementIXT_ESt5tupleIJDpT0_EEE4typeERSD_
FN:1803,1804,_ZSt3getILm1EJPNSt7__cxx1118basic_stringstreamIcSt11char_traitsIcESaIcEEESt14default_deleteIS5_EEERNSt13tuple_elementIXT_ESt5tupleIJDpT0_EEE4typeERSD_
FN:1809,1810,_ZSt3getILm0EJN7testing7MatcherIR7AccountEES4_NS1_IiEEEERKNSt13tuple_elementIXT_ESt5tupleIJDpT0_EEE4typeERKSA_
FN:1809,1810,_ZSt3getILm0EJN7testing7MatcherIiEEEERKNSt13tuple_elementIXT_ESt5tupleIJDpT0_EEE4typeERKS7_
FN:1809,1810,_ZSt3getILm0EJPKiSt14default_deleteIS0_EEERKNSt13tuple_elementIXT_ESt5tupleIJDpT0_EEE4typeERKS8_
FN:1809,1810,_ZSt3getILm0EJPN7testing8internal11ThreadLocalIPNS0_8SequenceEE18ValueHolderFactoryESt14default_deleteIS6_EEERKNSt13tuple_elementIXT_ESt5tupleIJDpT0_EEE4typeERKSE_
FN:1809,1810,_ZSt3getILm0EJPN7testing8internal19TestMetaFactoryBaseIiEESt14default_deleteIS3_EEERKNSt13tuple_elementIXT_ESt5tupleIJDpT0_EEE4typeERKSB_
FN:1809,1810,_ZSt3getILm0EJPN7testing8internal22ParamIteratorInterfaceIiEESt14default_deleteIS3_EEERKNSt13tuple_elementIXT_ESt5tupleIJDpT0_EEE4typeERKSB_
FN:1809,1810,_ZSt3getILm0EJPNSt7__cxx1112basic_stringIcSt11char_traitsIcESaIcEEESt14default_deleteIS5_EEERKNSt13tuple_elementIXT_ESt5tupleIJDpT0_EEE4typeERKSD_
FN:1809,1810,_ZSt3getILm0EJPNSt7__cxx1118basic_stringstreamIcSt11char_traitsIcESaIcEEESt14default_deleteIS5_EEERKNSt13tuple_elementIXT_ESt5tupleIJDpT0_EEE4typeERKSD_
FN:1809,1810,_ZSt3getILm0EJR7AccountS1_iEERKNSt13tuple_elementIXT_ESt5tupleIJDpT0_EEE4typeERKS6_
FN:1809,1810,_ZSt3getILm0EJiEERKNSt13tuple_elementIXT_ESt5tupleIJDpT0_EEE4typeERKS4_
FN:1809,1810,_ZSt3getILm1EJN7testing7MatcherIR7AccountEES4_NS1_IiEEEERKNSt13tuple_elementIXT_ESt5tupleIJDpT0_EEE4typeERKSA_
FN:1809,1810,_ZSt3getILm1EJR7AccountS1_iEERKNSt13tuple_elementIXT_ESt5tupleIJDpT0_EEE4typeERKS6_
FN:1809,1810,_ZSt3getILm2EJN7testing7MatcherIR7AccountEES4_NS1_IiEEEERKNSt13tuple_elementIXT_ESt5tupleIJDpT0_EEE4typeERKSA_
FN:1809,1810,_ZSt3getILm2EJR7AccountS1_iEERKNSt13tuple_elementIXT_ESt5tupleIJDpT0_EEE4typeERKS6_
FN:1815,1819,_ZSt3getILm0EJPKN7testing8internal11MatcherBaseIR7AccountEEPKNS1_15AnythingMatcherEEEONSt13tuple_elementIXT_ESt5tupleIJDpT0_EEE4typeEOSF_
FN:1815,1819,_ZSt3getILm0EJPKN7testing8internal11MatcherBaseIRKSt5tupleIJEEEEPKNS1_15AnythingMatcherEEEONSt13tuple_elementIXT_ES3_IJDpT0_EEE4typeEOSG_
FN:1815,1819,_ZSt3getILm0EJPKN7testing8internal11MatcherBaseIRKSt5tupleIJR7AccountS5_iEEEEPKNS1_15AnythingMatcherEEEONSt13tuple_elementIXT_ES3_IJDpT0_EEE4typeEOSI_
FN:1815,1819,_ZSt3getILm0EJPKN7testing8internal11MatcherBaseIRKSt5tupleIJiEEEEPKNS1_15AnythingMatcherEEEONSt13tuple_elementIXT_ES3_IJDpT0_EEE4typeEOSG_
FN:1815,1819,_ZSt3getILm0EJPKN7testing8internal11MatcherBaseIiEEPKNS1_15AnythingMatcherEEEONSt13tuple_elementIXT_ESt5tupleIJDpT0_EEE4typeEOSD_
FN:1815,1819,_ZSt3getILm0EJPKN7testing8internal11MatcherBaseIiEEPKNS1_9EqMatcherIiEEEEONSt13tuple_elementIXT_ESt5tupleIJDpT0_EEE4typeEOSE_
FN:1815,1819,_ZSt3getILm0EJR7AccountS1_iEEONSt13tuple_elementIXT_ESt5tupleIJDpT0_EEE4typeEOS6_
FN:1815,1819,_ZSt3getILm0EJiEEONSt13tuple_elementIXT_ESt5tupleIJDpT0_EEE4typeEOS4_
FN:1815,1819,_ZSt3getILm1EJR7AccountS1_iEEONSt13tuple_elementIXT_ESt5tupleIJDpT0_EEE4typeEOS6_
FN:1815,1819,_ZSt3getILm2EJR7AccountS1_iEEONSt13tuple_elementIXT_ESt5tupleIJDpT0_EEE4typeEOS6_
FN:190,191,_ZNSt10_Head_baseILm0EPKiLb0EEC2Ev
FN:190,191,_ZNSt10_Head_baseILm0EPN7testing8internal19TestMetaFactoryBaseIiEELb0EEC2Ev
FN:190,191,_ZNSt10_Head_baseILm0EPN7testing8internal22ParamIteratorInterfaceIiEELb0EEC2Ev
FN:190,191,_ZNSt10_Head_baseILm0EPNSt7__cxx1112basic_stringIcSt11char_traitsIcESaIcEEELb0EEC2Ev
FN:193,194,_ZNSt10_Head_baseILm0ER7AccountLb0EEC2ES1_
FN:193,194,_ZNSt10_Head_baseILm1ER7AccountLb0EEC2ES1_
FN:196,196,_ZNSt10_Head_baseILm0EN7testing7MatcherIR7AccountEELb0EEC2ERKS5_
FN:196,196,_ZNSt10_Head_baseILm0EN7testing7MatcherIiEELb0EEC2ERKS3_
FN:196,196,_ZNSt10_Head_baseILm1EN7testing7MatcherIR7AccountEELb0EEC2ERKS5_
FN:196,196,_ZNSt10_Head_baseILm2EN7testing7MatcherIiEELb0EEC2ERKS3_
FN:200,201,_ZNSt10_Head_baseILm0EN7testing7MatcherIR7AccountEELb0EEC2IS4_EEOT_
FN:200,201,_ZNSt10_Head_baseILm0EN7testing7MatcherIiEELb0EEC2IS2_EEOT_
FN:200,201,_ZNSt10_Head_baseILm0EN7testing8internal10ValueArrayIJiiiiEEELb0EEC2IS3_EEOT_
FN:200,201,_ZNSt10_Head_baseILm0EPKN7testing8internal11MatcherBaseIR7AccountEELb0EEC2IS7_EEOT_
FN:200,201,_ZNSt10_Head_baseILm0EPKN7testing8internal11MatcherBaseIRKSt5tupleIJEEEELb0EEC2IS9_EEOT_
FN:200,201,_ZNSt10_Head_baseILm0EPKN7testing8internal11MatcherBaseIRKSt5tupleIJR7AccountS5_iEEEELb0EEC2ISB_EEOT_
FN:200,201,_ZNSt10_Head_baseILm0EPKN7testing8internal11MatcherBaseIRKSt5tupleIJiEEEELb0EEC2IS9_EEOT_
FN:200,201,_ZNSt10_Head_baseILm0EPKN7testing8internal11MatcherBaseIiEELb0EEC2IS5_EEOT_
FN:200,201,_ZNSt10_Head_baseILm0EiLb0EEC2IiEEOT_
FN:200,201,_ZNSt10_Head_baseILm1EN7testing7MatcherIR7AccountEELb0EEC2IS4_EEOT_
FN:200,201,_ZNSt10_Head_baseILm1EPKN7testing8internal15AnythingMatcherELb0EEC2IS4_EEOT_
FN:200,201,_ZNSt10_Head_baseILm1EPKN7testing8internal9EqMatcherIiEELb0EEC2IS5_EEOT_
FN:200,201,_ZNSt10_Head_baseILm2EN7testing7MatcherIiEELb0EEC2IS2_EEOT_
FN:200,201,_ZNSt10_Head_baseILm2EiLb0EEC2IiEEOT_
FN:2001,2006,_ZSt10make_tupleIJEESt5tupleIJDpNSt25__strip_reference_wrapperINSt5decayIT_E4typeEE6__typeEEEDpOS3_
FN:2001,2006,_ZSt10make_tupleIJN7testing7MatcherIR7AccountEES4_NS1_IiEEEESt5tupleIJDpNSt25__strip_reference_wrapperINSt5decayIT_E4typeEE6__typeEEEDpOS9_
FN:2001,2006,_ZSt10make_tupleIJN7testing7MatcherIiEEEESt5tupleIJDpNSt25__strip_reference_wrapperINSt5decayIT_E4typeEE6__typeEEEDpOS6_
FN:2001,2006,_ZSt10make_tupleIJN7testing8internal10ValueArrayIJiiiiEEEEESt5tupleIJDpNSt25__strip_reference_wrapperINSt5decayIT_E4typeEE6__typeEEEDpOS7_
FN:2001,2006,_ZSt10make_tupleIJPKN7testing8internal11MatcherBaseIR7AccountEEPKNS1_15AnythingMatcherEEESt5tupleIJDpNSt25__strip_reference_wrapperINSt5decayIT_E4typeEE6__typeEEEDpOSE_
FN:2001,2006,_ZSt10make_tupleIJPKN7testing8internal11MatcherBaseIRKSt5tupleIJEEEEPKNS1_15AnythingMatcherEEES3_IJDpNSt25__strip_reference_wrapperINSt5decayIT_E4typeEE6__typeEEEDpOSF_
FN:2001,2006,_ZSt10make_tupleIJPKN7testing8internal11MatcherBaseIRKSt5tupleIJR7AccountS5_iEEEEPKNS1_15AnythingMatcherEEES3_IJDpNSt25__strip_reference_wrapperINSt5decayIT_E4typeEE6__typeEEEDpOSH_
FN:2001,2006,_ZSt10make_tupleIJPKN7testing8internal11MatcherBaseIRKSt5tupleIJiEEEEPKNS1_15AnythingMatcherEEES3_IJDpNSt25__strip_reference_wrapperINSt5decayIT_E4typeEE6__typeEEEDpOSF_
FN:2001,2006,_ZSt10make_tupleIJPKN7testing8internal11MatcherBaseIiEEPKNS1_15AnythingMatcherEEESt5tupleIJDpNSt25__strip_reference_wrapperINSt5decayIT_E4typeEE6__typeEEEDpOSC_
FN:2001,2006,_ZSt10make_tupleIJPKN7testing8internal11MatcherBaseIiEEPKNS1_9EqMatcherIiEEEESt5tupleIJDpNSt25__strip_reference_wrapperINSt5decayIT_E4typeEE6__typeEEEDpOSD_
FN:234,234,_ZNSt10_Head_baseILm0EPKN7testing8internal11MatcherBaseIR7AccountEELb0EE7_M_headERS8_
FN:234,234,_ZNSt10_Head_baseILm0EPKN7testing8internal11MatcherBaseIRKSt5tupleIJEEEELb0EE7_M_headERSA_
FN:234,234,_ZNSt10_Head_baseILm0EPKN7testing8internal11MatcherBaseIRKSt5tupleIJR7AccountS5_iEEEELb0EE7_M_headERSC_
FN:234,234,_ZNSt10_Head_baseILm0EPKN7testing8internal11MatcherBaseIRKSt5tupleIJiEEEELb0EE7_M_headERSA_
FN:234,234,_ZNSt10_Head_baseILm0EPKN7testing8internal11MatcherBaseIiEELb0EE7_M_headERS6_
FN:234,234,_ZNSt10_Head_baseILm0EPKiLb0EE7_M_headERS2_
FN:234,234,_ZNSt10_Head_baseILm0EPN7testing8internal19TestMetaFactoryBaseIiEELb0EE7_M_headERS5_
FN:234,234,_ZNSt10_Head_baseILm0EPN7testing8internal22ParamIteratorInterfaceIiEELb0EE7_M_headERS5_
FN:234,234,_ZNSt10_Head_baseILm0EPNSt7__cxx1112basic_stringIcSt11char_traitsIcESaIcEEELb0EE7_M_headERS7_
FN:234,234,_ZNSt10_Head_baseILm0EPNSt7__cxx1118basic_stringstreamIcSt11char_traitsIcESaIcEEELb0EE7_M_headERS7_
FN:234,234,_ZNSt10_Head_baseILm0ER7AccountLb0EE7_M_headERS2_
FN:234,234,_ZNSt10_Head_baseILm0EiLb0EE7_M_headERS0_
FN:234,234,_ZNSt10_Head_baseILm1ER7AccountLb0EE7_M_headERS2_
FN:234,234,_ZNSt10_Head_baseILm2EiLb0EE7_M_headERS0_
FN:237,237,_ZNSt10_Head_baseILm0EN7testing7MatcherIR7AccountEELb0EE7_M_headERKS5_
FN:237,237,_ZNSt10_Head_baseILm0EN7testing7MatcherIiEELb0EE7_M_headERKS3_
FN:237,237,_ZNSt10_Head_baseILm0EPKiLb0EE7_M_headERKS2_
FN:237,237,_ZNSt10_Head_baseILm0EPN7testing8internal11ThreadLocalIPNS0_8SequenceEE18ValueHolderFactoryELb0EE7_M_headERKS8_
FN:237,237,_ZNSt10_Head_baseILm0EPN7testing8internal19TestMetaFactoryBaseIiEELb0EE7_M_headERKS5_
FN:237,237,_ZNSt10_Head_baseILm0EPN7testing8internal22ParamIteratorInterfaceIiEELb0EE7_M_headERKS5_
FN:237,237,_ZNSt10_Head_baseILm0EPNSt7__cxx1112basic_stringIcSt11char_traitsIcESaIcEEELb0EE7_M_headERKS7_
FN:237,237,_ZNSt10_Head_baseILm0EPNSt7__cxx1118basic_stringstreamIcSt11char_traitsIcESaIcEEELb0EE7_M_headERKS7_
FN:237,237,_ZNSt10_Head_baseILm0ER7AccountLb0EE7_M_headERKS2_
FN:237,237,_ZNSt10_Head_baseILm0EiLb0EE7_M_headERKS0_
FN:237,237,_ZNSt10_Head_baseILm1EN7testing7MatcherIR7AccountEELb0EE7_M_headERKS5_
FN:237,237,_ZNSt10_Head_baseILm1ER7AccountLb0EE7_M_headERKS2_
FN:237,237,_ZNSt10_Head_baseILm2EN7testing7MatcherIiEELb0EE7_M_headERKS3_
FN:237,237,_ZNSt10_Head_baseILm2EiLb0EE7_M_headERKS0_
FN:269,269,_ZNSt11_Tuple_implILm0EJPKN7testing8internal11MatcherBaseIR7AccountEEPKNS1_15AnythingMatcherEEE7_M_headERSB_
FN:269,269,_ZNSt11_Tuple_implILm0EJPKN7testing8internal11MatcherBaseIRKSt5tupleIJEEEEPKNS1_15AnythingMatcherEEE7_M_headERSD_
FN:269,269,_ZNSt11_Tuple_implILm0EJPKN7testing8internal11MatcherBaseIRKSt5tupleIJR7AccountS5_iEEEEPKNS1_15AnythingMatcherEEE7_M_headERSF_
FN:269,269,_ZNSt11_Tuple_implILm0EJPKN7testing8internal11MatcherBaseIRKSt5tupleIJiEEEEPKNS1_15AnythingMatcherEEE7_M_headERSD_
FN:269,269,_ZNSt11_Tuple_implILm0EJPKN7testing8internal11MatcherBaseIiEEPKNS1_15AnythingMatcherEEE7_M_headERS9_
FN:269,269,_ZNSt11_Tuple_implILm0EJPKN7testing8internal11MatcherBaseIiEEPKNS1_9EqMatcherIiEEEE7_M_headERSA_
FN:269,269,_ZNSt11_Tuple_implILm0EJPKiSt14default_deleteIS0_EEE7_M_headERS4_
FN:269,269,_ZNSt11_Tuple_implILm0EJPN7testing8internal19TestMetaFactoryBaseIiEESt14default_deleteIS3_EEE7_M_headERS7_
FN:269,269,_ZNSt11_Tuple_implILm0EJPN7testing8internal22ParamIteratorInterfaceIiEESt14default_deleteIS3_EEE7_M_headERS7_
FN:269,269,_ZNSt11_Tuple_implILm0EJPNSt7__cxx1112basic_stringIcSt11char_traitsIcESaIcEEESt14default_deleteIS5_EEE7_M_headERS9_
FN:269,269,_ZNSt11_Tuple_implILm0EJPNSt7__cxx1118basic_stringstreamIcSt11char_traitsIcESaIcEEESt14default_deleteIS5_EEE7_M_headERS9_
FN:269,269,_ZNSt11_Tuple_implILm0EJR7AccountS1_iEE7_M_headERS2_
FN:269,269,_ZNSt11_Tuple_implILm1EJR7AccountiEE7_M_headERS2_
FN:272,272,_ZNSt11_Tuple_implILm0EJN7testing7MatcherIR7AccountEES4_NS1_IiEEEE7_M_headERKS6_
FN:272,272,_ZNSt11_Tuple_implILm0EJPKiSt14default_deleteIS0_EEE7_M_headERKS4_
FN:272,272,_ZNSt11_Tuple_implILm0EJPN7testing8internal11ThreadLocalIPNS0_8SequenceEE18ValueHolderFactoryESt14default_deleteIS6_EEE7_M_headERKSA_
FN:272,272,_ZNSt11_Tuple_implILm0EJPN7testing8internal19TestMetaFactoryBaseIiEESt14default_deleteIS3_EEE7_M_headERKS7_
FN:272,272,_ZNSt11_Tuple_implILm0EJPN7testing8internal22ParamIteratorInterfaceIiEESt14default_deleteIS3_EEE7_M_headERKS7_
FN:272,272,_ZNSt11_Tuple_implILm0EJPNSt7__cxx1112basic_stringIcSt11char_traitsIcESaIcEEESt14default_deleteIS5_EEE7_M_headERKS9_
FN:272,272,_ZNSt11_Tuple_implILm0EJPNSt7__cxx1118basic_stringstreamIcSt11char_traitsIcESaIcEEESt14default_deleteIS5_EEE7_M_headERKS9_
FN:272,272,_ZNSt11_Tuple_implILm0EJR7AccountS1_iEE7_M_headERKS2_
FN:272,272,_ZNSt11_Tuple_implILm1EJN7testing7MatcherIR7AccountEENS1_IiEEEE7_M_headERKS6_
FN:272,272,_ZNSt11_Tuple_implILm1EJR7AccountiEE7_M_headERKS2_
FN:280,281,_ZNSt11_Tuple_implILm0EJPKiSt14default_deleteIS0_EEEC2Ev
FN:280,281,_ZNSt11_Tuple_implILm0EJPN7testing8internal19TestMetaFactoryBaseIiEESt14default_deleteIS3_EEEC2Ev
FN:280,281,_ZNSt11_Tuple_implILm0EJPN7testing8internal22ParamIteratorInterfaceIiEESt14default_deleteIS3_EEEC2Ev
FN:280,281,_ZNSt11_Tuple_implILm0EJPNSt7__cxx1112basic_stringIcSt11char_traitsIcESaIcEEESt14default_deleteIS5_EEEC2Ev
FN:291,294,_ZNSt11_Tuple_implILm0EJN7testing7MatcherIR7AccountEES4_NS1_IiEEEEC2IS4_JS4_S5_EvEEOT_DpOT0_
FN:291,294,_ZNSt11_Tuple_implILm0EJPKN7testing8internal11MatcherBaseIR7AccountEEPKNS1_15AnythingMatcherEEEC2IS7_JSA_EvEEOT_DpOT0_
FN:291,294,_ZNSt11_Tuple_implILm0EJPKN7testing8internal11MatcherBaseIRKSt5tupleIJEEEEPKNS1_15AnythingMatcherEEEC2IS9_JSC_EvEEOT_DpOT0_
FN:291,294,_ZNSt11_Tuple_implILm0EJPKN7testing8internal11MatcherBaseIRKSt5tupleIJR7AccountS5_iEEEEPKNS1_15AnythingMatcherEEEC2ISB_JSE_EvEEOT_DpOT0_
FN:291,294,_ZNSt11_Tuple_implILm0EJPKN7testing8internal11MatcherBaseIRKSt5tupleIJiEEEEPKNS1_15AnythingMatcherEEEC2IS9_JSC_EvEEOT_DpOT0_
FN:291,294,_ZNSt11_Tuple_implILm0EJPKN7testing8internal11MatcherBaseIiEEPKNS1_15AnythingMatcherEEEC2IS5_JS8_EvEEOT_DpOT0_
FN:291,294,_ZNSt11_Tuple_implILm0EJPKN7testing8internal11MatcherBaseIiEEPKNS1_9EqMatcherIiEEEEC2IS5_JS9_EvEEOT_DpOT0_
FN:291,294,_ZNSt11_Tuple_implILm0EJR7AccountS1_iEEC2IS1_JS1_iEvEEOT_DpOT0_
FN:291,294,_ZNSt11_Tuple_implILm1EJN7testing7MatcherIR7AccountEENS1_IiEEEEC2IS4_JS5_EvEEOT_DpOT0_
FN:291,294,_ZNSt11_Tuple_implILm1EJR7AccountiEEC2IS1_JiEvEEOT_DpOT0_
FN:296,296,_ZNSt11_Tuple_implILm0EJN7testing7MatcherIR7AccountEES4_NS1_IiEEEEC2ERKS6_
FN:296,296,_ZNSt11_Tuple_implILm1EJN7testing7MatcherIR7AccountEENS1_IiEEEEC2ERKS6_
FN:302,302,_ZNSt11_Tuple_implILm0EJR7AccountS1_iEEC2EOS2_
FN:302,302,_ZNSt11_Tuple_implILm1EJR7AccountiEEC2EOS2_
FN:497,497,_ZNSt11_Tuple_implILm0EJiEE7_M_headERS0_
FN:497,497,_ZNSt11_Tuple_implILm1EJSt14default_deleteIKiEEE7_M_headERS3_
FN:497,497,_ZNSt11_Tuple_implILm1EJSt14default_deleteIN7testing8internal19TestMetaFactoryBaseIiEEEEE7_M_headERS6_
FN:497,497,_ZNSt11_Tuple_implILm1EJSt14default_deleteIN7testing8internal22ParamIteratorInterfaceIiEEEEE7_M_headERS6_
FN:497,497,_ZNSt11_Tuple_implILm1EJSt14default_deleteINSt7__cxx1112basic_stringIcSt11char_traitsIcESaIcEEEEEE7_M_headERS8_
FN:497,497,_ZNSt11_Tuple_implILm1EJSt14default_deleteINSt7__cxx1118basic_stringstreamIcSt11char_traitsIcESaIcEEEEEE7_M_headERS8_
FN:497,497,_ZNSt11_Tuple_implILm2EJiEE7_M_headERS0_
FN:500,500,_ZNSt11_Tuple_implILm0EJN7testing7MatcherIiEEEE7_M_headERKS3_
FN:500,500,_ZNSt11_Tuple_implILm0EJiEE7_M_headERKS0_
FN:500,500,_ZNSt11_Tuple_implILm2EJN7testing7MatcherIiEEEE7_M_headERKS3_
FN:500,500,_ZNSt11_Tuple_implILm2EJiEE7_M_headERKS0_
FN:503,504,_ZNSt11_Tuple_implILm1EJSt14default_deleteIKiEEEC2Ev
FN:503,504,_ZNSt11_Tuple_implILm1EJSt14default_deleteIN7testing8internal19TestMetaFactoryBaseIiEEEEEC2Ev
FN:503,504,_ZNSt11_Tuple_implILm1EJSt14default_deleteIN7testing8internal22ParamIteratorInterfaceIiEEEEEC2Ev
FN:503,504,_ZNSt11_Tuple_implILm1EJSt14default_deleteINSt7__cxx1112basic_stringIcSt11char_traitsIcESaIcEEEEEEC2Ev
FN:513,515,_ZNSt11_Tuple_implILm0EJN7testing7MatcherIiEEEEC2IS2_EEOT_
FN:513,515,_ZNSt11_Tuple_implILm0EJN7testing8internal10ValueArrayIJiiiiEEEEEC2IS3_EEOT_
FN:513,515,_ZNSt11_Tuple_implILm0EJiEEC2IiEEOT_
FN:513,515,_ZNSt11_Tuple_implILm1EJPKN7testing8internal15AnythingMatcherEEEC2IS4_EEOT_
FN:513,515,_ZNSt11_Tuple_implILm1EJPKN7testing8internal9EqMatcherIiEEEEC2IS5_EEOT_
FN:513,515,_ZNSt11_Tuple_implILm2EJN7testing7MatcherIiEEEEC2IS2_EEOT_
FN:513,515,_ZNSt11_Tuple_implILm2EJiEEC2IiEEOT_
FN:517,517,_ZNSt11_Tuple_implILm0EJN7testing7MatcherIiEEEEC2ERKS3_
FN:517,517,_ZNSt11_Tuple_implILm2EJN7testing7MatcherIiEEEEC2ERKS3_
FN:527,530,_ZNSt11_Tuple_implILm0EJiEEC2EOS0_
FN:527,530,_ZNSt11_Tuple_implILm2EJiEEC2EOS0_
FN:81,82,_ZNSt10_Head_baseILm1ESt14default_deleteIKiELb1EEC2Ev
FN:81,82,_ZNSt10_Head_baseILm1ESt14default_deleteIN7testing8internal19TestMetaFactoryBaseIiEEELb1EEC2Ev
FN:81,82,_ZNSt10_Head_baseILm1ESt14default_deleteIN7testing8internal22ParamIteratorInterfaceIiEEELb1EEC2Ev
FN:81,82,_ZNSt10_Head_baseILm1ESt14default_deleteINSt7__cxx1112basic_stringIcSt11char_traitsIcESaIcEEEELb1EEC2Ev
FN:889,891,_ZNSt5tupleIJN7testing7MatcherIR7AccountEES4_NS1_IiEEEEC2IJS4_S4_S5_ELb1ELb1EEEDpOT_
FN:889,891,_ZNSt5tupleIJN7testing7MatcherIiEEEEC2IJS2_ELb1ELb1EEEDpOT_
FN:889,891,_ZNSt5tupleIJN7testing8internal10ValueArrayIJiiiiEEEEEC2IJS3_ELb1ELb1EEEDpOT_
FN:889,891,_ZNSt5tupleIJR7AccountS1_iEEC2IJS1_S1_iELb1ELb1EEEDpOT_
FN:889,891,_ZNSt5tupleIJiEEC2IJiELb1ELb1EEEDpOT_
FN:901,901,_ZNSt5tupleIJN7testing7MatcherIR7AccountEES4_NS1_IiEEEEC2ERKS6_
FN:901,901,_ZNSt5tupleIJN7testing7MatcherIiEEEEC2ERKS3_
FN:903,903,_ZNSt5tupleIJR7AccountS1_iEEC2EOS2_
FN:903,903,_ZNSt5tupleIJiEEC2EOS0_
FNDA:4,_ZNSt10_Head_baseILm1ESt14default_deleteIKiELb1EE7_M_headERS3_
FNDA:1,_ZNSt10_Head_baseILm1ESt14default_deleteIN7testing8internal19TestMetaFactoryBaseIiEEELb1EE7_M_headERS6_
FNDA:6,_ZNSt10_Head_baseILm1ESt14default_deleteIN7testing8internal22ParamIteratorInterfaceIiEEELb1EE7_M_headERS6_
FNDA:0,_ZNSt10_Head_baseILm1ESt14default_deleteINSt7__cxx1112basic_stringIcSt11char_traitsIcESaIcEEEELb1EE7_M_headERS8_
FNDA:105,_ZNSt10_Head_baseILm1ESt14default_deleteINSt7__cxx1118basic_stringstreamIcSt11char_traitsIcESaIcEEEELb1EE7_M_headERS8_
FNDA:6,_ZNSt5tupleIJPKiSt14default_deleteIS0_EEEC2ILb1ELb1EEEv
FNDA:1,_ZNSt5tupleIJPN7testing8internal19TestMetaFactoryBaseIiEESt14default_deleteIS3_EEEC2ILb1ELb1EEEv
FNDA:6,_ZNSt5tupleIJPN7testing8internal22ParamIteratorInterfaceIiEESt14default_deleteIS3_EEEC2ILb1ELb1EEEv
FNDA:12,_ZNSt5tupleIJPNSt7__cxx1112basic_stringIcSt11char_traitsIcESaIcEEESt14default_deleteIS5_EEEC2ILb1ELb1EEEv
FNDA:0,_ZNSt5tupleIJPKN7testing8internal11MatcherBaseIR7AccountEEPKNS1_15AnythingMatcherEEEC2IS7_SA_Lb1EEEOT_OT0_
FNDA:0,_ZNSt5tupleIJPKN7testing8internal11MatcherBaseIRKS_IJEEEEPKNS1_15AnythingMatcherEEEC2IS8_SB_Lb1EEEOT_OT0_
FNDA:0,_ZNSt5tupleIJPKN7testing8internal11MatcherBaseIRKS_IJR7AccountS4_iEEEEPKNS1_15AnythingMatcherEEEC2ISA_SD_Lb1EEEOT_OT0_
FNDA:0,_ZNSt5tupleIJPKN7testing8internal11MatcherBaseIRKS_IJiEEEEPKNS1_15AnythingMatcherEEEC2IS8_SB_Lb1EEEOT_OT0_
FNDA:0,_ZNSt5tupleIJPKN7testing8internal11MatcherBaseIiEEPKNS1_15AnythingMatcherEEEC2IS5_S8_Lb1EEEOT_OT0_
FNDA:0,_ZNSt5tupleIJPKN7testing8internal11MatcherBaseIiEEPKNS1_9EqMatcherIiEEEEC2IS5_S9_Lb1EEEOT_OT0_
FNDA:0,_ZSt12__get_helperILm0EPKN7testing8internal11MatcherBaseIR7AccountEEJPKNS1_15AnythingMatcherEEERT0_RSt11_Tuple_implIXT_EJSB_DpT1_EE
FNDA:0,_ZSt12__get_helperILm0EPKN7testing8internal11MatcherBaseIRKSt5tupleIJEEEEJPKNS1_15AnythingMatcherEEERT0_RSt11_Tuple_implIXT_EJSD_DpT1_EE
FNDA:0,_ZSt12__get_helperILm0EPKN7testing8internal11MatcherBaseIRKSt5tupleIJR7AccountS5_iEEEEJPKNS1_15AnythingMatcherEEERT0_RSt11_Tuple_implIXT_EJSF_DpT1_EE
FNDA:0,_ZSt12__get_helperILm0EPKN7testing8internal11MatcherBaseIRKSt5tupleIJiEEEEJPKNS1_15AnythingMatcherEEERT0_RSt11_Tuple_implIXT_EJSD_DpT1_EE
FNDA:0,_ZSt12__get_helperILm0EPKN7testing8internal11MatcherBaseIiEEJPKNS1_15AnythingMatcherEEERT0_RSt11_Tuple_implIXT_EJS9_DpT1_EE
FNDA:0,_ZSt12__get_helperILm0EPKN7testing8internal11MatcherBaseIiEEJPKNS1_9EqMatcherIiEEEERT0_RSt11_Tuple_implIXT_EJSA_DpT1_EE
FNDA:22,_ZSt12__get_helperILm0EPKiJSt14default_deleteIS0_EEERT0_RSt11_Tuple_implIXT_EJS4_DpT1_EE
FNDA:2,_ZSt12__get_helperILm0EPN7testing8internal19TestMetaFactoryBaseIiEEJSt14default_deleteIS3_EEERT0_RSt11_Tuple_implIXT_EJS7_DpT1_EE
FNDA:12,_ZSt12__get_helperILm0EPN7testing8internal22ParamIteratorInterfaceIiEEJSt14default_deleteIS3_EEERT0_RSt11_Tuple_implIXT_EJS7_DpT1_EE
FNDA:12,_ZSt12__get_helperILm0EPNSt7__cxx1112basic_stringIcSt11char_traitsIcESaIcEEEJSt14default_deleteIS5_EEERT0_RSt11_Tuple_implIXT_EJS9_DpT1_EE
FNDA:210,_ZSt12__get_helperILm0EPNSt7__cxx1118basic_stringstreamIcSt11char_traitsIcESaIcEEEJSt14default_deleteIS5_EEERT0_RSt11_Tuple_implIXT_EJS9_DpT1_EE
FNDA:0,_ZSt12__get_helperILm0ER7AccountJS1_iEERT0_RSt11_Tuple_implIXT_EJS2_DpT1_EE
FNDA:0,_ZSt12__get_helperILm0EiJEERT0_RSt11_Tuple_implIXT_EJS0_DpT1_EE
FNDA:0,_ZSt12__get_helperILm1ER7AccountJiEERT0_RSt11_Tuple_implIXT_EJS2_DpT1_EE
FNDA:4,_ZSt12__get_helperILm1ESt14default_deleteIKiEJEERT0_RSt11_Tuple_implIXT_EJS3_DpT1_EE
FNDA:1,_ZSt12__get_helperILm1ESt14default_deleteIN7testing8internal19TestMetaFactoryBaseIiEEEJEERT0_RSt11_Tuple_implIXT_EJS6_DpT1_EE
FNDA:6,_ZSt12__get_helperILm1ESt14default_deleteIN7testing8internal22ParamIteratorInterfaceIiEEEJEERT0_RSt11_Tuple_implIXT_EJS6_DpT1_EE
FNDA:0,_ZSt12__get_helperILm1ESt14default_deleteINSt7__cxx1112basic_stringIcSt11char_traitsIcESaIcEEEEJEERT0_RSt11_Tuple_implIXT_EJS8_DpT1_EE
FNDA:105,_ZSt12__get_helperILm1ESt14default_deleteINSt7__cxx1118basic_stringstreamIcSt11char_traitsIcESaIcEEEEJEERT0_RSt11_Tuple_implIXT_EJS8_DpT1_EE
FNDA:0,_ZSt12__get_helperILm2EiJEERT0_RSt11_Tuple_implIXT_EJS0_DpT1_EE
FNDA:2,_ZSt12__get_helperILm0EN7testing7MatcherIR7AccountEEJS4_NS1_IiEEEERKT0_RKSt11_Tuple_implIXT_EJS6_DpT1_EE
FNDA:4,_ZSt12__get_helperILm0EN7testing7MatcherIiEEJEERKT0_RKSt11_Tuple_implIXT_EJS3_DpT1_EE
FNDA:24,_ZSt12__get_helperILm0EPKiJSt14default_deleteIS0_EEERKT0_RKSt11_Tuple_implIXT_EJS4_DpT1_EE
FNDA:1,_ZSt12__get_helperILm0EPN7testing8internal11ThreadLocalIPNS0_8SequenceEE18ValueHolderFactoryEJSt14default_deleteIS6_EEERKT0_RKSt11_Tuple_implIXT_EJSA_DpT1_EE
FNDA:4,_ZSt12__get_helperILm0EPN7testing8internal19TestMetaFactoryBaseIiEEJSt14default_deleteIS3_EEERKT0_RKSt11_Tuple_implIXT_EJS7_DpT1_EE
FNDA:36,_ZSt12__get_helperILm0EPN7testing8internal22ParamIteratorInterfaceIiEEJSt14default_deleteIS3_EEERKT0_RKSt11_Tuple_implIXT_EJS7_DpT1_EE
FNDA:0,_ZSt12__get_helperILm0EPNSt7__cxx1112basic_stringIcSt11char_traitsIcESaIcEEEJSt14default_deleteIS5_EEERKT0_RKSt11_Tuple_implIXT_EJS9_DpT1_EE
FNDA:737,_ZSt12__get_helperILm0EPNSt7__cxx1118basic_stringstreamIcSt11char_traitsIcESaIcEEEJSt14default_deleteIS5_EEERKT0_RKSt11_Tuple_implIXT_EJS9_DpT1_EE
FNDA:2,_ZSt12__get_helperILm0ER7AccountJS1_iEERKT0_RKSt11_Tuple_implIXT_EJS2_DpT1_EE
FNDA:4,_ZSt12__get_helperILm0EiJEERKT0_RKSt11_Tuple_implIXT_EJS0_DpT1_EE
FNDA:2,_ZSt12__get_helperILm1EN7testing7MatcherIR7AccountEEJNS1_IiEEEERKT0_RKSt11_Tuple_implIXT_EJS6_DpT1_EE
FNDA:2,_ZSt12__get_helperILm1ER7AccountJiEERKT0_RKSt11_Tuple_implIXT_EJS2_DpT1_EE
FNDA:2,_ZSt12__get_helperILm2EN7testing7MatcherIiEEJEERKT0_RKSt11_Tuple_implIXT_EJS3_DpT1_EE
FNDA:2,_ZSt12__get_helperILm2EiJEERKT0_RKSt11_Tuple_implIXT_EJS0_DpT1_EE
FNDA:22,_ZSt3getILm0EJPKiSt14default_deleteIS0_EEERNSt13tuple_elementIXT_ESt5tupleIJDpT0_EEE4typeERS8_
FNDA:2,_ZSt3getILm0EJPN7testing8internal19TestMetaFactoryBaseIiEESt14default_deleteIS3_EEERNSt13tuple_elementIXT_ESt5tupleIJDpT0_EEE4typeERSB_
FNDA:12,_ZSt3getILm0EJPN7testing8internal22ParamIteratorInterfaceIiEESt14default_deleteIS3_EEERNSt13tuple_elementIXT_ESt5tupleIJDpT0_EEE4typeERSB_
FNDA:12,_ZSt3getILm0EJPNSt7__cxx1112basic_stringIcSt11char_traitsIcESaIcEEESt14default_deleteIS5_EEERNSt13tuple_elementIXT_ESt5tupleIJDpT0_EEE4typeERSD_
FNDA:210,_ZSt3getILm0EJPNSt7__cxx1118basic_stringstreamIcSt11char_traitsIcESaIcEEESt14default_deleteIS5_EEERNSt13tuple_elementIXT_ESt5tupleIJDpT0_EEE4typeERSD_
FNDA:4,_ZSt3getILm1EJPKiSt14default_deleteIS0_EEERNSt13tuple_elementIXT_ESt5tupleIJDpT0_EEE4typeERS8_
FNDA:1,_ZSt3getILm1EJPN7testing8internal19TestMetaFactoryBaseIiEESt14default_deleteIS3_EEERNSt13tuple_elementIXT_ESt5tupleIJDpT0_EEE4typeERSB_
FNDA:6,_ZSt3getILm1EJPN7testing8internal22ParamIteratorInterfaceIiEESt14default_deleteIS3_EEERNSt13tuple_elementIXT_ESt5tupleIJDpT0_EEE4typeERSB_
FNDA:0,_ZSt3getILm1EJPNSt7__cxx1112basic_stringIcSt11char_traitsIcESaIcEEESt14default_deleteIS5_EEERNSt13tuple_elementIXT_ESt5tupleIJDpT0_EEE4typeERSD_
FNDA:105,_ZSt3getILm1EJPNSt7__cxx1118basic_stringstreamIcSt11char_traitsIcESaIcEEESt14default_deleteIS5_EEERNSt13tuple_elementIXT_ESt5tupleIJDpT0_EEE4typeERSD_
FNDA:2,_ZSt3getILm0EJN7testing7MatcherIR7AccountEES4_NS1_IiEEEERKNSt13tuple_elementIXT_ESt5tupleIJDpT0_EEE4typeERKSA_
FNDA:4,_ZSt3getILm0EJN7testing7MatcherIiEEEERKNSt13tuple_elementIXT_ESt5tupleIJDpT0_EEE4typeERKS7_
FNDA:24,_ZSt3getILm0EJPKiSt14default_deleteIS0_EEERKNSt13tuple_elementIXT_ESt5tupleIJDpT0_EEE4typeERKS8_
FNDA:1,_ZSt3getILm0EJPN7testing8internal11ThreadLocalIPNS0_8SequenceEE18ValueHolderFactoryESt14default_deleteIS6_EEERKNSt13tuple_elementIXT_ESt5tupleIJDpT0_EEE4typeERKSE_
FNDA:4,_ZSt3getILm0EJPN7testing8internal19TestMetaFactoryBaseIiEESt14default_deleteIS3_EEERKNSt13tuple_elementIXT_ESt5tupleIJDpT0_EEE4typeERKSB_
FNDA:36,_ZSt3getILm0EJPN7testing8internal22ParamIteratorInterfaceIiEESt14default_deleteIS3_EEERKNSt13tuple_elementIXT_ESt5tupleIJDpT0_EEE4typeERKSB_
FNDA:0,_ZSt3getILm0EJPNSt7__cxx1112basic_stringIcSt11char_traitsIcESaIcEEESt14default_deleteIS5_EEERKNSt13tuple_elementIXT_ESt5tupleIJDpT0_EEE4typeERKSD_
FNDA:737,_ZSt3getILm0EJPNSt7__cxx1118basic_stringstreamIcSt11char_traitsIcESaIcEEESt14default_deleteIS5_EEERKNSt13tuple_elementIXT_ESt5tupleIJDpT0_EEE4typeERKSD_
FNDA:2,_ZSt3getILm0EJR7AccountS1_iEERKNSt13tuple_elementIXT_ESt5tupleIJDpT0_EEE4typeERKS6_
FNDA:4,_ZSt3getILm0EJiEERKNSt13tuple_elementIXT_ESt5tupleIJDpT0_EEE4typeERKS4_
FNDA:2,_ZSt3getILm1EJN7testing7MatcherIR7AccountEES4_NS1_IiEEEERKNSt13tuple_elementIXT_ESt5tupleIJDpT0_EEE4typeERKSA_
FNDA:2,_ZSt3getILm1EJR7AccountS1_iEERKNSt13tuple_elementIXT_ESt5tupleIJDpT0_EEE4typeERKS6_
FNDA:2,_ZSt3getILm2EJN7testing7MatcherIR7AccountEES4_NS1_IiEEEERKNSt13tuple_elementIXT_ESt5tupleIJDpT0_EEE4typeERKSA_
FNDA:2,_ZSt3getILm2EJR7AccountS1_iEERKNSt13tuple_elementIXT_ESt5tupleIJDpT0_EEE4typeERKS6_
FNDA:0,_ZSt3getILm0EJPKN7testing8internal11MatcherBaseIR7AccountEEPKNS1_15AnythingMatcherEEEONSt13tuple_elementIXT_ESt5tupleIJDpT0_EEE4typeEOSF_
FNDA:0,_ZSt3getILm0EJPKN7testing8internal11MatcherBaseIRKSt5tupleIJEEEEPKNS1_15AnythingMatcherEEEONSt13tuple_elementIXT_ES3_IJDpT0_EEE4typeEOSG_
FNDA:0,_ZSt3getILm0EJPKN7testing8internal11MatcherBaseIRKSt5tupleIJR7AccountS5_iEEEEPKNS1_15AnythingMatcherEEEONSt13tuple_elementIXT_ES3_IJDpT0_EEE4typeEOSI_
FNDA:0,_ZSt3getILm0EJPKN7testing8internal11MatcherBaseIRKSt5tupleIJiEEEEPKNS1_15AnythingMatcherEEEONSt13tuple_elementIXT_ES3_IJDpT0_EEE4typeEOSG_
FNDA:0,_ZSt3getILm0EJPKN7testing8internal11MatcherBaseIiEEPKNS1_15AnythingMatcherEEEONSt13tuple_elementIXT_ESt5tupleIJDpT0_EEE4typeEOSD_
FNDA:0,_ZSt3getILm0EJPKN7testing8internal11MatcherBaseIiEEPKNS1_9EqMatcherIiEEEEONSt13tuple_elementIXT_ESt5tupleIJDpT0_EEE4typeEOSE_
FNDA:0,_ZSt3getILm0EJR7AccountS1_iEEONSt13tuple_elementIXT_ESt5tupleIJDpT0_EEE4typeEOS6_
FNDA:0,_ZSt3getILm0EJiEEONSt13tuple_elementIXT_ESt5tupleIJDpT0_EEE4typeEOS4_
FNDA:0,_ZSt3getILm1EJR7AccountS1_iEEONSt13tuple_elementIXT_ESt5tupleIJDpT0_EEE4typeEOS6_
FNDA:0,_ZSt3getILm2EJR7AccountS1_iEEONSt13tuple_elementIXT_ESt5tupleIJDpT0_EEE4typeEOS6_
FNDA:6,_ZNSt10_Head_baseILm0EPKiLb0EEC2Ev
FNDA:1,_ZNSt10_Head_baseILm0EPN7testing8internal19TestMetaFactoryBaseIiEELb0EEC2Ev
FNDA:6,_ZNSt10_Head_baseILm0EPN7testing8internal22ParamIteratorInterfaceIiEELb0EEC2Ev
FNDA:12,_ZNSt10_Head_baseILm0EPNSt7__cxx1112basic_stringIcSt11char_traitsIcESaIcEEELb0EEC2Ev
FNDA:2,_ZNSt10_Head_baseILm0ER7AccountLb0EEC2ES1_
FNDA:2,_ZNSt10_Head_baseILm1ER7AccountLb0EEC2ES1_
FNDA:6,_ZNSt10_Head_baseILm0EN7testing7MatcherIR7AccountEELb0EEC2ERKS5_
FNDA:8,_ZNSt10_Head_baseILm0EN7testing7MatcherIiEELb0EEC2ERKS3_
FNDA:6,_ZNSt10_Head_baseILm1EN7testing7MatcherIR7AccountEELb0EEC2ERKS5_
FNDA:6,_ZNSt10_Head_baseILm2EN7testing7MatcherIiEELb0EEC2ERKS3_
FNDA:3,_ZNSt10_Head_baseILm0EN7testing7MatcherIR7AccountEELb0EEC2IS4_EEOT_
FNDA:4,_ZNSt10_Head_baseILm0EN7testing7MatcherIiEELb0EEC2IS2_EEOT_
FNDA:0,_ZNSt10_Head_baseILm0EN7testing8internal10ValueArrayIJiiiiEEELb0EEC2IS3_EEOT_
FNDA:0,_ZNSt10_Head_baseILm0EPKN7testing8internal11MatcherBaseIR7AccountEELb0EEC2IS7_EEOT_
FNDA:0,_ZNSt10_Head_baseILm0EPKN7testing8internal11MatcherBaseIRKSt5tupleIJEEEELb0EEC2IS9_EEOT_
FNDA:0,_ZNSt10_Head_baseILm0EPKN7testing8internal11MatcherBaseIRKSt5tupleIJR7AccountS5_iEEEELb0EEC2ISB_EEOT_
FNDA:0,_ZNSt10_Head_baseILm0EPKN7testing8internal11MatcherBaseIRKSt5tupleIJiEEEELb0EEC2IS9_EEOT_
FNDA:0,_ZNSt10_Head_baseILm0EPKN7testing8internal11MatcherBaseIiEELb0EEC2IS5_EEOT_
FNDA:4,_ZNSt10_Head_baseILm0EiLb0EEC2IiEEOT_
FNDA:3,_ZNSt10_Head_baseILm1EN7testing7MatcherIR7AccountEELb0EEC2IS4_EEOT_
FNDA:0,_ZNSt10_Head_baseILm1EPKN7testing8internal15AnythingMatcherELb0EEC2IS4_EEOT_
FNDA:0,_ZNSt10_Head_baseILm1EPKN7testing8internal9EqMatcherIiEELb0EEC2IS5_EEOT_
FNDA:3,_ZNSt10_Head_baseILm2EN7testing7MatcherIiEELb0EEC2IS2_EEOT_
FNDA:2,_ZNSt10_Head_baseILm2EiLb0EEC2IiEEOT_
FNDA:10,_ZSt10make_tupleIJEESt5tupleIJDpNSt25__strip_reference_wrapperINSt5decayIT_E4typeEE6__typeEEEDpOS3_
FNDA:3,_ZSt10make_tupleIJN7testing7MatcherIR7AccountEES4_NS1_IiEEEESt5tupleIJDpNSt25__strip_reference_wrapperINSt5decayIT_E4typeEE6__typeEEEDpOS9_
FNDA:4,_ZSt10make_tupleIJN7testing7MatcherIiEEEESt5tupleIJDpNSt25__strip_reference_wrapperINSt5decayIT_E4typeEE6__typeEEEDpOS6_
FNDA:0,_ZSt10make_tupleIJN7testing8internal10ValueArrayIJiiiiEEEEESt5tupleIJDpNSt25__strip_reference_wrapperINSt5decayIT_E4typeEE6__typeEEEDpOS7_
FNDA:0,_ZSt10make_tupleIJPKN7testing8internal11MatcherBaseIR7AccountEEPKNS1_15AnythingMatcherEEESt5tupleIJDpNSt25__strip_reference_wrapperINSt5decayIT_E4typeEE6__typeEEEDpOSE_
FNDA:0,_ZSt10make_tupleIJPKN7testing8internal11MatcherBaseIRKSt5tupleIJEEEEPKNS1_15AnythingMatcherEEES3_IJDpNSt25__strip_reference_wrapperINSt5decayIT_E4typeEE6__typeEEEDpOSF_
FNDA:0,_ZSt10make_tupleIJPKN7testing8internal11MatcherBaseIRKSt5tupleIJR7AccountS5_iEEEEPKNS1_15AnythingMatcherEEES3_IJDpNSt25__strip_reference_wrapperINSt5decayIT_E4typeEE6__typeEEEDpOSH_
FNDA:0,_ZSt10make_tupleIJPKN7testing8internal11MatcherBaseIRKSt5tupleIJiEEEEPKNS1_15AnythingMatcherEEES3_IJDpNSt25__strip_reference_wrapperINSt5decayIT_E4typeEE6__typeEEEDpOSF_
FNDA:0,_ZSt10make_tupleIJPKN7testing8internal11MatcherBaseIiEEPKNS1_15AnythingMatcherEEESt5tupleIJDpNSt25__strip_reference_wrapperINSt5decayIT_E4typeEE6__typeEEEDpOSC_
FNDA:0,_ZSt10make_tupleIJPKN7testing8internal11MatcherBaseIiEEPKNS1_9EqMatcherIiEEEESt5tupleIJDpNSt25__strip_reference_wrapperINSt5decayIT_E4typeEE6__typeEEEDpOSD_
FNDA:0,_ZNSt10_Head_baseILm0EPKN7testing8internal11MatcherBaseIR7AccountEELb0EE7_M_headERS8_
FNDA:0,_ZNSt10_Head_baseILm0EPKN7testing8internal11MatcherBaseIRKSt5tupleIJEEEELb0EE7_M_headERSA_
FNDA:0,_ZNSt10_Head_baseILm0EPKN7testing8internal11MatcherBaseIRKSt5tupleIJR7AccountS5_iEEEELb0EE7_M_headERSC_
FNDA:0,_ZNSt10_Head_baseILm0EPKN7testing8internal11MatcherBaseIRKSt5tupleIJiEEEELb0EE7_M_headERSA_
FNDA:0,_ZNSt10_Head_baseILm0EPKN7testing8internal11MatcherBaseIiEELb0EE7_M_headERS6_
FNDA:22,_ZNSt10_Head_baseILm0EPKiLb0EE7_M_headERS2_
FNDA:2,_ZNSt10_Head_baseILm0EPN7testing8internal19TestMetaFactoryBaseIiEELb0EE7_M_headERS5_
FNDA:12,_ZNSt10_Head_baseILm0EPN7testing8internal22ParamIteratorInterfaceIiEELb0EE7_M_headERS5_
FNDA:12,_ZNSt10_Head_baseILm0EPNSt7__cxx1112basic_stringIcSt11char_traitsIcESaIcEEELb0EE7_M_headERS7_
FNDA:210,_ZNSt10_Head_baseILm0EPNSt7__cxx1118basic_stringstreamIcSt11char_traitsIcESaIcEEELb0EE7_M_headERS7_
FNDA:0,_ZNSt10_Head_baseILm0ER7AccountLb0EE7_M_headERS2_
FNDA:0,_ZNSt10_Head_baseILm0EiLb0EE7_M_headERS0_
FNDA:0,_ZNSt10_Head_baseILm1ER7AccountLb0EE7_M_headERS2_
FNDA:0,_ZNSt10_Head_baseILm2EiLb0EE7_M_headERS0_
FNDA:2,_ZNSt10_Head_baseILm0EN7testing7MatcherIR7AccountEELb0EE7_M_headERKS5_
FNDA:4,_ZNSt10_Head_baseILm0EN7testing7MatcherIiEELb0EE7_M_headERKS3_
FNDA:24,_ZNSt10_Head_baseILm0EPKiLb0EE7_M_headERKS2_
FNDA:1,_ZNSt10_Head_baseILm0EPN7testing8internal11ThreadLocalIPNS0_8SequenceEE18ValueHolderFactoryELb0EE7_M_headERKS8_
FNDA:4,_ZNSt10_Head_baseILm0EPN7testing8internal19TestMetaFactoryBaseIiEELb0EE7_M_headERKS5_
FNDA:36,_ZNSt10_Head_baseILm0EPN7testing8internal22ParamIteratorInterfaceIiEELb0EE7_M_headERKS5_
FNDA:0,_ZNSt10_Head_baseILm0EPNSt7__cxx1112basic_stringIcSt11char_traitsIcESaIcEEELb0EE7_M_headERKS7_
FNDA:737,_ZNSt10_Head_baseILm0EPNSt7__cxx1118basic_stringstreamIcSt11char_traitsIcESaIcEEELb0EE7_M_headERKS7_
FNDA:2,_ZNSt10_Head_baseILm0ER7AccountLb0EE7_M_headERKS2_
FNDA:4,_ZNSt10_Head_baseILm0EiLb0EE7_M_headERKS0_
FNDA:2,_ZNSt10_Head_baseILm1EN7testing7MatcherIR7AccountEELb0EE7_M_headERKS5_
FNDA:2,_ZNSt10_Head_baseILm1ER7AccountLb0EE7_M_headERKS2_
FNDA:2,_ZNSt10_Head_baseILm2EN7testing7MatcherIiEELb0EE7_M_headERKS3_
FNDA:2,_ZNSt10_Head_baseILm2EiLb0EE7_M_headERKS0_
FNDA:0,_ZNSt11_Tuple_implILm0EJPKN7testing8internal11MatcherBaseIR7AccountEEPKNS1_15AnythingMatcherEEE7_M_headERSB_
FNDA:0,_ZNSt11_Tuple_implILm0EJPKN7testing8internal11MatcherBaseIRKSt5tupleIJEEEEPKNS1_15AnythingMatcherEEE7_M_headERSD_
FNDA:0,_ZNSt11_Tuple_implILm0EJPKN7testing8internal11MatcherBaseIRKSt5tupleIJR7AccountS5_iEEEEPKNS1_15AnythingMatcherEEE7_M_headERSF_
FNDA:0,_ZNSt11_Tuple_implILm0EJPKN7testing8internal11MatcherBaseIRKSt5tupleIJiEEEEPKNS1_15AnythingMatcherEEE7_M_headERSD_
FNDA:0,_ZNSt11_Tuple_implILm0EJPKN7testing8internal11MatcherBaseIiEEPKNS1_15AnythingMatcherEEE7_M_headERS9_
FNDA:0,_ZNSt11_Tuple_implILm0EJPKN7testing8internal11MatcherBaseIiEEPKNS1_9EqMatcherIiEEEE7_M_headERSA_
FNDA:22,_ZNSt11_Tuple_implILm0EJPKiSt14default_deleteIS0_EEE7_M_headERS4_
FNDA:2,_ZNSt11_Tuple_implILm0EJPN7testing8internal19TestMetaFactoryBaseIiEESt14default_deleteIS3_EEE7_M_headERS7_
FNDA:12,_ZNSt11_Tuple_implILm0EJPN7testing8internal22ParamIteratorInterfaceIiEESt14default_deleteIS3_EEE7_M_headERS7_
FNDA:12,_ZNSt11_Tuple_implILm0EJPNSt7__cxx1112basic_stringIcSt11char_traitsIcESaIcEEESt14default_deleteIS5_EEE7_M_headERS9_
FNDA:210,_ZNSt11_Tuple_implILm0EJPNSt7__cxx1118basic_stringstreamIcSt11char_traitsIcESaIcEEESt14default_deleteIS5_EEE7_M_headERS9_
FNDA:0,_ZNSt11_Tuple_implILm0EJR7AccountS1_iEE7_M_headERS2_
FNDA:0,_ZNSt11_Tuple_implILm1EJR7AccountiEE7_M_headERS2_
FNDA:2,_ZNSt11_Tuple_implILm0EJN7testing7MatcherIR7AccountEES4_NS1_IiEEEE7_M_headERKS6_
FNDA:24,_ZNSt11_Tuple_implILm0EJPKiSt14default_deleteIS0_EEE7_M_headERKS4_
FNDA:1,_ZNSt11_Tuple_implILm0EJPN7testing8internal11ThreadLocalIPNS0_8SequenceEE18ValueHolderFactoryESt14default_deleteIS6_EEE7_M_headERKSA_
FNDA:4,_ZNSt11_Tuple_implILm0EJPN7testing8internal19TestMetaFactoryBaseIiEESt14default_deleteIS3_EEE7_M_headERKS7_
FNDA:36,_ZNSt11_Tuple_implILm0EJPN7testing8internal22ParamIteratorInterfaceIiEESt14default_deleteIS3_EEE7_M_headERKS7_
FNDA:0,_ZNSt11_Tuple_implILm0EJPNSt7__cxx1112basic_stringIcSt11char_traitsIcESaIcEEESt14default_deleteIS5_EEE7_M_headERKS9_
FNDA:737,_ZNSt11_Tuple_implILm0EJPNSt7__cxx1118basic_stringstreamIcSt11char_traitsIcESaIcEEESt14default_deleteIS5_EEE7_M_headERKS9_
FNDA:2,_ZNSt11_Tuple_implILm0EJR7AccountS1_iEE7_M_headERKS2_
FNDA:2,_ZNSt11_Tuple_implILm1EJN7testing7MatcherIR7AccountEENS1_IiEEEE7_M_headERKS6_
FNDA:2,_ZNSt11_Tuple_implILm1EJR7AccountiEE7_M_headERKS2_
FNDA:6,_ZNSt11_Tuple_implILm0EJPKiSt14default_deleteIS0_EEEC2Ev
FNDA:1,_ZNSt11_Tuple_implILm0EJPN7testing8internal19TestMetaFactoryBaseIiEESt14default_deleteIS3_EEEC2Ev
FNDA:6,_ZNSt11_Tuple_implILm0EJPN7testing8internal22ParamIteratorInterfaceIiEESt14default_deleteIS3_EEEC2Ev
FNDA:12,_ZNSt11_Tuple_implILm0EJPNSt7__cxx1112basic_stringIcSt11char_traitsIcESaIcEEESt14default_deleteIS5_EEEC2Ev
FNDA:3,_ZNSt11_Tuple_implILm0EJN7testing7MatcherIR7AccountEES4_NS1_IiEEEEC2IS4_JS4_S5_EvEEOT_DpOT0_
FNDA:0,_ZNSt11_Tuple_implILm0EJPKN7testing8internal11MatcherBaseIR7AccountEEPKNS1_15AnythingMatcherEEEC2IS7_JSA_EvEEOT_DpOT0_
FNDA:0,_ZNSt11_Tuple_implILm0EJPKN7testing8internal11MatcherBaseIRKSt5tupleIJEEEEPKNS1_15AnythingMatcherEEEC2IS9_JSC_EvEEOT_DpOT0_
FNDA:0,_ZNSt11_Tuple_implILm0EJPKN7testing8internal11MatcherBaseIRKSt5tupleIJR7AccountS5_iEEEEPKNS1_15AnythingMatcherEEEC2ISB_JSE_EvEEOT_DpOT0_
FNDA:0,_ZNSt11_Tuple_implILm0EJPKN7testing8internal11MatcherBaseIRKSt5tupleIJiEEEEPKNS1_15AnythingMatcherEEEC2IS9_JSC_EvEEOT_DpOT0_
FNDA:0,_ZNSt11_Tuple_implILm0EJPKN7testing8internal11MatcherBaseIiEEPKNS1_15AnythingMatcherEEEC2IS5_JS8_EvEEOT_DpOT0_
FNDA:0,_ZNSt11_Tuple_implILm0EJPKN7testing8internal11MatcherBaseIiEEPKNS1_9EqMatcherIiEEEEC2IS5_JS9_EvEEOT_DpOT0_
FNDA:2,_ZNSt11_Tuple_implILm0EJR7AccountS1_iEEC2IS1_JS1_iEvEEOT_DpOT0_
FNDA:3,_ZNSt11_Tuple_implILm1EJN7testing7MatcherIR7AccountEENS1_IiEEEEC2IS4_JS5_EvEEOT_DpOT0_
FNDA:2,_ZNSt11_Tuple_implILm1EJR7AccountiEEC2IS1_JiEvEEOT_DpOT0_
FNDA:6,_ZNSt11_Tuple_implILm0EJN7testing7MatcherIR7AccountEES4_NS1_IiEEEEC2ERKS6_
FNDA:6,_ZNSt11_Tuple_implILm1EJN7testing7MatcherIR7AccountEENS1_IiEEEEC2ERKS6_
FNDA:0,_ZNSt11_Tuple_implILm0EJR7AccountS1_iEEC2EOS2_
FNDA:0,_ZNSt11_Tuple_implILm1EJR7AccountiEEC2EOS2_
FNDA:0,_ZNSt11_Tuple_implILm0EJiEE7_M_headERS0_
FNDA:4,_ZNSt11_Tuple_implILm1EJSt14default_deleteIKiEEE7_M_headERS3_
FNDA:1,_ZNSt11_Tuple_implILm1EJSt14default_deleteIN7testing8internal19TestMetaFactoryBaseIiEEEEE7_M_headERS6_
FNDA:6,_ZNSt11_Tuple_implILm1EJSt14default_deleteIN7testing8internal22ParamIteratorInterfaceIiEEEEE7_M_headERS6_
FNDA:0,_ZNSt11_Tuple_implILm1EJSt14default_deleteINSt7__cxx1112basic_stringIcSt11char_traitsIcESaIcEEEEEE7_M_headERS8_
FNDA:105,_ZNSt11_Tuple_implILm1EJSt14default_deleteINSt7__cxx1118basic_stringstreamIcSt11char_traitsIcESaIcEEEEEE7_M_headERS8_
FNDA:0,_ZNSt11_Tuple_implILm2EJiEE7_M_headERS0_
FNDA:4,_ZNSt11_Tuple_implILm0EJN7testing7MatcherIiEEEE7_M_headERKS3_
FNDA:4,_ZNSt11_Tuple_implILm0EJiEE7_M_headERKS0_
FNDA:2,_ZNSt11_Tuple_implILm2EJN7testing7MatcherIiEEEE7_M_headERKS3_
FNDA:2,_ZNSt11_Tuple_implILm2EJiEE7_M_headERKS0_
FNDA:6,_ZNSt11_Tuple_implILm1EJSt14default_deleteIKiEEEC2Ev
FNDA:1,_ZNSt11_Tuple_implILm1EJSt14default_deleteIN7testing8internal19TestMetaFactoryBaseIiEEEEEC2Ev
FNDA:6,_ZNSt11_Tuple_implILm1EJSt14default_deleteIN7testing8internal22ParamIteratorInterfaceIiEEEEEC2Ev
FNDA:12,_ZNSt11_Tuple_implILm1EJSt14default_deleteINSt7__cxx1112basic_stringIcSt11char_traitsIcESaIcEEEEEEC2Ev
FNDA:4,_ZNSt11_Tuple_implILm0EJN7testing7MatcherIiEEEEC2IS2_EEOT_
FNDA:0,_ZNSt11_Tuple_implILm0EJN7testing8internal10ValueArrayIJiiiiEEEEEC2IS3_EEOT_
FNDA:4,_ZNSt11_Tuple_implILm0EJiEEC2IiEEOT_
FNDA:0,_ZNSt11_Tuple_implILm1EJPKN7testing8internal15AnythingMatcherEEEC2IS4_EEOT_
FNDA:0,_ZNSt11_Tuple_implILm1EJPKN7testing8internal9EqMatcherIiEEEEC2IS5_EEOT_
FNDA:3,_ZNSt11_Tuple_implILm2EJN7testing7MatcherIiEEEEC2IS2_EEOT_
FNDA:2,_ZNSt11_Tuple_implILm2EJiEEC2IiEEOT_
FNDA:8,_ZNSt11_Tuple_implILm0EJN7testing7MatcherIiEEEEC2ERKS3_
FNDA:6,_ZNSt11_Tuple_implILm2EJN7testing7MatcherIiEEEEC2ERKS3_
FNDA:0,_ZNSt11_Tuple_implILm0EJiEEC2EOS0_
FNDA:0,_ZNSt11_Tuple_implILm2EJiEEC2EOS0_
FNDA:6,_ZNSt10_Head_baseILm1ESt14default_deleteIKiELb1EEC2Ev
FNDA:1,_ZNSt10_Head_baseILm1ESt14default_deleteIN7testing8internal19TestMetaFactoryBaseIiEEELb1EEC2Ev
FNDA:6,_ZNSt10_Head_baseILm1ESt14default_deleteIN7testing8internal22ParamIteratorInterfaceIiEEELb1EEC2Ev
FNDA:12,_ZNSt10_Head_baseILm1ESt14default_deleteINSt7__cxx1112basic_stringIcSt11char_traitsIcESaIcEEEELb1EEC2Ev
FNDA:3,_ZNSt5tupleIJN7testing7MatcherIR7AccountEES4_NS1_IiEEEEC2IJS4_S4_S5_ELb1ELb1EEEDpOT_
FNDA:4,_ZNSt5tupleIJN7testing7MatcherIiEEEEC2IJS2_ELb1ELb1EEEDpOT_
FNDA:0,_ZNSt5tupleIJN7testing8internal10ValueArrayIJiiiiEEEEEC2IJS3_ELb1ELb1EEEDpOT_
FNDA:2,_ZNSt5tupleIJR7AccountS1_iEEC2IJS1_S1_iELb1ELb1EEEDpOT_
FNDA:4,_ZNSt5tupleIJiEEC2IJiELb1ELb1EEEDpOT_
FNDA:6,_ZNSt5tupleIJN7testing7MatcherIR7AccountEES4_NS1_IiEEEEC2ERKS6_
FNDA:8,_ZNSt5tupleIJN7testing7MatcherIiEEEEC2ERKS3_
FNDA:0,_ZNSt5tupleIJR7AccountS1_iEEC2EOS2_
FNDA:0,_ZNSt5tupleIJiEEC2EOS0_
FNF:225
FNH:141
DA:81,25
DA:82,25
DA:125,116
DA:190,25
DA:191,25
DA:193,4
DA:194,4
DA:196,26
DA:200,19
DA:201,19
DA:234,258
DA:237,822
DA:269,258
DA:272,810
DA:280,25
DA:281,25
DA:291,10
DA:293,10
DA:294,10
DA:296,12
DA:302,0
DA:497,116
DA:500,12
DA:503,25
DA:504,25
DA:513,13
DA:514,13
DA:515,13
DA:517,14
DA:527,0
DA:529,0
DA:530,0
DA:889,13
DA:891,13
DA:901,14
DA:903,0
DA:1317,25
DA:1319,25
DA:1345,0
DA:1347,0
DA:1787,374
DA:1788,374
DA:1792,822
DA:1793,822
DA:1803,374
DA:1804,374
DA:1809,822
DA:1810,822
DA:1815,0
DA:1818,0
DA:2001,17
DA:2005,17
LF:52
LH:43
end_of_record
TN:
SF:/usr/include/c++/13/type_traits
FN:67,67,_ZNKSt17integral_constantIbLb1EEcvbEv
FNDA:17,_ZNKSt17integral_constantIbLb1EEcvbEv
FNF:1
FNH:1
DA:67,17
LF:1
LH:1
end_of_record
TN:
SF:/usr/include/c++/13/typeinfo
FN:103,104,_ZNKSt9type_info4nameEv
FN:193,210,_ZNKSt9type_infoeqERKS_
FNDA:0,_ZNKSt9type_info4nameEv
FNDA:0,_ZNKSt9type_infoeqERKS_
FNF:2
FNH:0
DA:103,0
DA:104,0
DA:193,0
DA:195,0
DA:196,0
DA:198,0
DA:199,0
DA:206,0
LF:8
LH:0
end_of_record
TN:
SF:/usr/include/x86_64-linux-gnu/c++/13/bits/c++config.h
FN:540,551,_ZSt23__is_constant_evaluatedv
FNDA:1011,_ZSt23__is_constant_evaluatedv
FNF:1
FNH:1
DA:540,1011
DA:547,1011
LF:2
LH:2
end_of_record
